---
triple:          'arm64-apple-darwin'
binary-path:     '/Users/cameroncrook/Documents/personal_projects/feed_calculator/feed_calculator'
relocations:
  - { offsetInCU: 0x5C, offset: 0x5C, size: 0x8, addend: 0x0, symName: __ZNSt3__1L19piecewise_constructE, symObjAddr: 0xFE34, symBinAddr: 0x1000134B8, symSize: 0x0 }
  - { offsetInCU: 0x5F5E, offset: 0x5F5E, size: 0x8, addend: 0x0, symName: __ZNSt3__17advanceB7v160006INS_21__tree_const_iteratorINS_12__value_typeIiiEEPNS_11__tree_nodeIS3_PvEElEEllvEEvRT_T0_, symObjAddr: 0x4940, symBinAddr: 0x100007A18, symSize: 0x50 }
  - { offsetInCU: 0x8911, offset: 0x8911, size: 0x8, addend: 0x0, symName: __ZNSt3__17advanceB7v160006INS_21__tree_const_iteratorINS_12__value_typeINS_12basic_stringIcNS_11char_traitsIcEENS_9allocatorIcEEEENS_3mapIiiNS_4lessIiEENS6_INS_4pairIKiiEEEEEEEEPNS_11__tree_nodeISH_PvEElEEllvEEvRT_T0_, symObjAddr: 0x7718, symBinAddr: 0x10000A7F0, symSize: 0x50 }
  - { offsetInCU: 0xB1AF, offset: 0xB1AF, size: 0x8, addend: 0x0, symName: __ZNSt3__17advanceB7v160006INS_21__tree_const_iteratorINS_12__value_typeINS_12basic_stringIcNS_11char_traitsIcEENS_9allocatorIcEEEENS_3mapIS8_NS9_IiiNS_4lessIiEENS6_INS_4pairIKiiEEEEEENSA_IS8_EENS6_INSC_IKS8_SG_EEEEEEEEPNS_11__tree_nodeISM_PvEElEEllvEEvRT_T0_, symObjAddr: 0x9908, symBinAddr: 0x10000C9E0, symSize: 0x50 }
  - { offsetInCU: 0xB919, offset: 0xB919, size: 0x8, addend: 0x0, symName: __ZNSt3__124__put_character_sequenceB7v160006IcNS_11char_traitsIcEEEERNS_13basic_ostreamIT_T0_EES7_PKS4_m, symObjAddr: 0xBB08, symBinAddr: 0x10000EBE0, symSize: 0x1EC }
  - { offsetInCU: 0x11B78, offset: 0x11B78, size: 0x8, addend: 0x0, symName: __ZNSt3__1lsB7v160006IcNS_11char_traitsIcEENS_9allocatorIcEEEERNS_13basic_ostreamIT_T0_EES9_RKNS_12basic_stringIS6_S7_T1_EE, symObjAddr: 0xE54, symBinAddr: 0x100003F2C, symSize: 0x4C }
  - { offsetInCU: 0x11BD0, offset: 0x11BD0, size: 0x8, addend: 0x0, symName: __ZNSt3__1lsB7v160006INS_11char_traitsIcEEEERNS_13basic_ostreamIcT_EES6_PKc, symObjAddr: 0xEA0, symBinAddr: 0x100003F78, symSize: 0x48 }
  - { offsetInCU: 0x11C16, offset: 0x11C16, size: 0x8, addend: 0x0, symName: __ZNSt3__14endlB7v160006IcNS_11char_traitsIcEEEERNS_13basic_ostreamIT_T0_EES7_, symObjAddr: 0xF14, symBinAddr: 0x100003FEC, symSize: 0x58 }
  - { offsetInCU: 0x11C56, offset: 0x11C56, size: 0x8, addend: 0x0, symName: __ZNSt3__17getlineB7v160006IcNS_11char_traitsIcEENS_9allocatorIcEEEERNS_13basic_istreamIT_T0_EES9_RNS_12basic_stringIS6_S7_T1_EE, symObjAddr: 0xF98, symBinAddr: 0x100004070, symSize: 0x5C }
  - { offsetInCU: 0x11CAE, offset: 0x11CAE, size: 0x8, addend: 0x0, symName: __ZNSt3__1neB7v160006IPNS_12basic_stringIcNS_11char_traitsIcEENS_9allocatorIcEEEEEEbRKNS_11__wrap_iterIT_EESC_, symObjAddr: 0x11CC, symBinAddr: 0x1000042A4, symSize: 0x34 }
  - { offsetInCU: 0x11CF1, offset: 0x11CF1, size: 0x8, addend: 0x0, symName: __ZNSt3__1eqB7v160006IcNS_11char_traitsIcEENS_9allocatorIcEEEEbRKNS_12basic_stringIT_T0_T1_EEPKS6_, symObjAddr: 0x1218, symBinAddr: 0x1000042F0, symSize: 0xAC }
  - { offsetInCU: 0x11D58, offset: 0x11D58, size: 0x8, addend: 0x0, symName: __ZNSt3__1neB7v160006ERKNS_15__list_iteratorI3CowPvEES5_, symObjAddr: 0x1564, symBinAddr: 0x10000463C, symSize: 0x34 }
  - { offsetInCU: 0x11D95, offset: 0x11D95, size: 0x8, addend: 0x0, symName: __ZNSt3__1plB7v160006IcNS_11char_traitsIcEENS_9allocatorIcEEEENS_12basic_stringIT_T0_T1_EEOS9_SA_, symObjAddr: 0x2738, symBinAddr: 0x100005810, symSize: 0x40 }
  - { offsetInCU: 0x11DED, offset: 0x11DED, size: 0x8, addend: 0x0, symName: __ZNSt3__1plB7v160006IcNS_11char_traitsIcEENS_9allocatorIcEEEENS_12basic_stringIT_T0_T1_EEOS9_PKS6_, symObjAddr: 0x2778, symBinAddr: 0x100005850, symSize: 0x40 }
  - { offsetInCU: 0x12309, offset: 0x12309, size: 0x8, addend: 0x0, symName: __ZNSt3__17getlineB7v160006IcNS_11char_traitsIcEENS_9allocatorIcEEEERNS_13basic_istreamIT_T0_EES9_RNS_12basic_stringIS6_S7_T1_EES6_, symObjAddr: 0x2B7C, symBinAddr: 0x100005C54, symSize: 0x238 }
  - { offsetInCU: 0x123D2, offset: 0x123D2, size: 0x8, addend: 0x0, symName: __ZNSt3__1eqB7v160006IPNS_12basic_stringIcNS_11char_traitsIcEENS_9allocatorIcEEEEEEbRKNS_11__wrap_iterIT_EESC_, symObjAddr: 0x2E60, symBinAddr: 0x100005F38, symSize: 0x48 }
  - { offsetInCU: 0x1246C, offset: 0x1246C, size: 0x8, addend: 0x0, symName: __ZNSt3__1eqB7v160006ERKNS_21__tree_const_iteratorINS_12__value_typeIiiEEPNS_11__tree_nodeIS2_PvEElEES9_, symObjAddr: 0x4300, symBinAddr: 0x1000073D8, symSize: 0x30 }
  - { offsetInCU: 0x124A9, offset: 0x124A9, size: 0x8, addend: 0x0, symName: __ZNSt3__14nextB7v160006INS_21__tree_const_iteratorINS_12__value_typeIiiEEPNS_11__tree_nodeIS3_PvEElEEEENS_9enable_ifIXsr25__is_cpp17_input_iteratorIT_EE5valueESA_E4typeESA_NS_15iterator_traitsISA_E15difference_typeE, symObjAddr: 0x4670, symBinAddr: 0x100007748, symSize: 0x50 }
  - { offsetInCU: 0x124EC, offset: 0x124EC, size: 0x8, addend: 0x0, symName: __ZNSt3__116__tree_prev_iterB7v160006IPNS_16__tree_node_baseIPvEEPNS_15__tree_end_nodeIS4_EEEET_T0_, symObjAddr: 0x47CC, symBinAddr: 0x1000078A4, symSize: 0xA4 }
  - { offsetInCU: 0x12538, offset: 0x12538, size: 0x8, addend: 0x0, symName: __ZNSt3__110__tree_maxB7v160006IPNS_16__tree_node_baseIPvEEEET_S5_, symObjAddr: 0x4870, symBinAddr: 0x100007948, symSize: 0x40 }
  - { offsetInCU: 0x1256D, offset: 0x1256D, size: 0x8, addend: 0x0, symName: __ZNSt3__120__tree_is_left_childB7v160006IPNS_16__tree_node_baseIPvEEEEbT_, symObjAddr: 0x48B0, symBinAddr: 0x100007988, symSize: 0x2C }
  - { offsetInCU: 0x125A2, offset: 0x125A2, size: 0x8, addend: 0x0, symName: __ZNSt3__121__convert_to_integralB7v160006El, symObjAddr: 0x4990, symBinAddr: 0x100007A68, symSize: 0x14 }
  - { offsetInCU: 0x125CE, offset: 0x125CE, size: 0x8, addend: 0x0, symName: __ZNSt3__19__advanceB7v160006INS_21__tree_const_iteratorINS_12__value_typeIiiEEPNS_11__tree_nodeIS3_PvEElEEEEvRT_NS_15iterator_traitsIS9_E15difference_typeENS_26bidirectional_iterator_tagE, symObjAddr: 0x49A4, symBinAddr: 0x100007A7C, symSize: 0xA4 }
  - { offsetInCU: 0x12617, offset: 0x12617, size: 0x8, addend: 0x0, symName: __ZNSt3__116__tree_next_iterB7v160006IPNS_15__tree_end_nodeIPNS_16__tree_node_baseIPvEEEES5_EET_T0_, symObjAddr: 0x4A80, symBinAddr: 0x100007B58, symSize: 0x80 }
  - { offsetInCU: 0x12655, offset: 0x12655, size: 0x8, addend: 0x0, symName: __ZNSt3__110__tree_minB7v160006IPNS_16__tree_node_baseIPvEEEET_S5_, symObjAddr: 0x4B00, symBinAddr: 0x100007BD8, symSize: 0x40 }
  - { offsetInCU: 0x126A8, offset: 0x126A8, size: 0x8, addend: 0x0, symName: __ZNSt3__117__libcpp_allocateB7v160006Emm, symObjAddr: 0x4DA8, symBinAddr: 0x100007E80, symSize: 0x28 }
  - { offsetInCU: 0x126E5, offset: 0x126E5, size: 0x8, addend: 0x0, symName: __ZNSt3__121__libcpp_operator_newB7v160006IJmEEEPvDpT_, symObjAddr: 0x4DE8, symBinAddr: 0x100007EC0, symSize: 0x24 }
  - { offsetInCU: 0x1271E, offset: 0x1271E, size: 0x8, addend: 0x0, symName: __ZNSt3__127__tree_balance_after_insertB7v160006IPNS_16__tree_node_baseIPvEEEEvT_S5_, symObjAddr: 0x5008, symBinAddr: 0x1000080E0, symSize: 0x27C }
  - { offsetInCU: 0x1279A, offset: 0x1279A, size: 0x8, addend: 0x0, symName: __ZNSt3__118__tree_left_rotateB7v160006IPNS_16__tree_node_baseIPvEEEEvT_, symObjAddr: 0x52AC, symBinAddr: 0x100008384, symSize: 0xD8 }
  - { offsetInCU: 0x127DC, offset: 0x127DC, size: 0x8, addend: 0x0, symName: __ZNSt3__119__tree_right_rotateB7v160006IPNS_16__tree_node_baseIPvEEEEvT_, symObjAddr: 0x5384, symBinAddr: 0x10000845C, symSize: 0xCC }
  - { offsetInCU: 0x1281E, offset: 0x1281E, size: 0x8, addend: 0x0, symName: __ZNSt3__119__libcpp_deallocateB7v160006EPvmm, symObjAddr: 0x56AC, symBinAddr: 0x100008784, symSize: 0x30 }
  - { offsetInCU: 0x12866, offset: 0x12866, size: 0x8, addend: 0x0, symName: __ZNSt3__127__do_deallocate_handle_sizeB7v160006IJEEEvPvmDpT_, symObjAddr: 0x56DC, symBinAddr: 0x1000087B4, symSize: 0x28 }
  - { offsetInCU: 0x128A4, offset: 0x128A4, size: 0x8, addend: 0x0, symName: __ZNSt3__124__libcpp_operator_deleteB7v160006IJPvEEEvDpT_, symObjAddr: 0x5704, symBinAddr: 0x1000087DC, symSize: 0x24 }
  - { offsetInCU: 0x128D9, offset: 0x128D9, size: 0x8, addend: 0x0, symName: __ZNSt3__1neB7v160006ERKNS_20__map_const_iteratorINS_21__tree_const_iteratorINS_12__value_typeIiiEEPNS_11__tree_nodeIS3_PvEElEEEESB_, symObjAddr: 0x5CF0, symBinAddr: 0x100008DC8, symSize: 0x30 }
  - { offsetInCU: 0x12916, offset: 0x12916, size: 0x8, addend: 0x0, symName: __ZNSt3__1neB7v160006ERKNS_21__tree_const_iteratorINS_12__value_typeIiiEEPNS_11__tree_nodeIS2_PvEElEES9_, symObjAddr: 0x5D74, symBinAddr: 0x100008E4C, symSize: 0x34 }
  - { offsetInCU: 0x129AA, offset: 0x129AA, size: 0x8, addend: 0x0, symName: __ZNSt3__1eqB7v160006ERKNS_21__tree_const_iteratorINS_12__value_typeINS_12basic_stringIcNS_11char_traitsIcEENS_9allocatorIcEEEENS_3mapIiiNS_4lessIiEENS5_INS_4pairIKiiEEEEEEEEPNS_11__tree_nodeISG_PvEElEESN_, symObjAddr: 0x6BDC, symBinAddr: 0x100009CB4, symSize: 0x30 }
  - { offsetInCU: 0x129E7, offset: 0x129E7, size: 0x8, addend: 0x0, symName: __ZNSt3__14nextB7v160006INS_21__tree_const_iteratorINS_12__value_typeINS_12basic_stringIcNS_11char_traitsIcEENS_9allocatorIcEEEENS_3mapIiiNS_4lessIiEENS6_INS_4pairIKiiEEEEEEEEPNS_11__tree_nodeISH_PvEElEEEENS_9enable_ifIXsr25__is_cpp17_input_iteratorIT_EE5valueESO_E4typeESO_NS_15iterator_traitsISO_E15difference_typeE, symObjAddr: 0x6F4C, symBinAddr: 0x10000A024, symSize: 0x50 }
  - { offsetInCU: 0x12A2A, offset: 0x12A2A, size: 0x8, addend: 0x0, symName: __ZNSt3__1ltB7v160006IcNS_11char_traitsIcEENS_9allocatorIcEEEEbRKNS_12basic_stringIT_T0_T1_EESB_, symObjAddr: 0x70A8, symBinAddr: 0x10000A180, symSize: 0x38 }
  - { offsetInCU: 0x12AA6, offset: 0x12AA6, size: 0x8, addend: 0x0, symName: __ZNSt3__13minB7v160006ImEERKT_S3_S3_, symObjAddr: 0x73C0, symBinAddr: 0x10000A498, symSize: 0x2C }
  - { offsetInCU: 0x12AE9, offset: 0x12AE9, size: 0x8, addend: 0x0, symName: __ZNSt3__118__constexpr_memcmpB7v160006IcEEiPKT_S3_m, symObjAddr: 0x74B8, symBinAddr: 0x10000A590, symSize: 0x34 }
  - { offsetInCU: 0x12B3A, offset: 0x12B3A, size: 0x8, addend: 0x0, symName: __ZNSt3__112__to_addressB7v160006IKcEEPT_S3_, symObjAddr: 0x74EC, symBinAddr: 0x10000A5C4, symSize: 0x14 }
  - { offsetInCU: 0x12BA2, offset: 0x12BA2, size: 0x8, addend: 0x0, symName: __ZNSt3__13minB7v160006ImNS_6__lessImmEEEERKT_S5_S5_T0_, symObjAddr: 0x75B8, symBinAddr: 0x10000A690, symSize: 0x54 }
  - { offsetInCU: 0x12C37, offset: 0x12C37, size: 0x8, addend: 0x0, symName: __ZNSt3__19__advanceB7v160006INS_21__tree_const_iteratorINS_12__value_typeINS_12basic_stringIcNS_11char_traitsIcEENS_9allocatorIcEEEENS_3mapIiiNS_4lessIiEENS6_INS_4pairIKiiEEEEEEEEPNS_11__tree_nodeISH_PvEElEEEEvRT_NS_15iterator_traitsISN_E15difference_typeENS_26bidirectional_iterator_tagE, symObjAddr: 0x7768, symBinAddr: 0x10000A840, symSize: 0xA4 }
  - { offsetInCU: 0x12C9E, offset: 0x12C9E, size: 0x8, addend: 0x0, symName: __ZNSt3__1neB7v160006ERKNS_20__map_const_iteratorINS_21__tree_const_iteratorINS_12__value_typeINS_12basic_stringIcNS_11char_traitsIcEENS_9allocatorIcEEEENS_3mapIiiNS_4lessIiEENS6_INS_4pairIKiiEEEEEEEEPNS_11__tree_nodeISH_PvEElEEEESP_, symObjAddr: 0x8538, symBinAddr: 0x10000B610, symSize: 0x30 }
  - { offsetInCU: 0x12CDB, offset: 0x12CDB, size: 0x8, addend: 0x0, symName: __ZNSt3__1neB7v160006ERKNS_21__tree_const_iteratorINS_12__value_typeINS_12basic_stringIcNS_11char_traitsIcEENS_9allocatorIcEEEENS_3mapIiiNS_4lessIiEENS5_INS_4pairIKiiEEEEEEEEPNS_11__tree_nodeISG_PvEElEESN_, symObjAddr: 0x85BC, symBinAddr: 0x10000B694, symSize: 0x34 }
  - { offsetInCU: 0x12D4B, offset: 0x12D4B, size: 0x8, addend: 0x0, symName: __ZNSt3__1eqB7v160006ERKNS_21__tree_const_iteratorINS_12__value_typeINS_12basic_stringIcNS_11char_traitsIcEENS_9allocatorIcEEEENS_3mapIS7_NS8_IiiNS_4lessIiEENS5_INS_4pairIKiiEEEEEENS9_IS7_EENS5_INSB_IKS7_SF_EEEEEEEEPNS_11__tree_nodeISL_PvEElEESS_, symObjAddr: 0x9424, symBinAddr: 0x10000C4FC, symSize: 0x30 }
  - { offsetInCU: 0x12D88, offset: 0x12D88, size: 0x8, addend: 0x0, symName: __ZNSt3__14nextB7v160006INS_21__tree_const_iteratorINS_12__value_typeINS_12basic_stringIcNS_11char_traitsIcEENS_9allocatorIcEEEENS_3mapIS8_NS9_IiiNS_4lessIiEENS6_INS_4pairIKiiEEEEEENSA_IS8_EENS6_INSC_IKS8_SG_EEEEEEEEPNS_11__tree_nodeISM_PvEElEEEENS_9enable_ifIXsr25__is_cpp17_input_iteratorIT_EE5valueEST_E4typeEST_NS_15iterator_traitsIST_E15difference_typeE, symObjAddr: 0x9794, symBinAddr: 0x10000C86C, symSize: 0x50 }
  - { offsetInCU: 0x12DCB, offset: 0x12DCB, size: 0x8, addend: 0x0, symName: __ZNSt3__19__advanceB7v160006INS_21__tree_const_iteratorINS_12__value_typeINS_12basic_stringIcNS_11char_traitsIcEENS_9allocatorIcEEEENS_3mapIS8_NS9_IiiNS_4lessIiEENS6_INS_4pairIKiiEEEEEENSA_IS8_EENS6_INSC_IKS8_SG_EEEEEEEEPNS_11__tree_nodeISM_PvEElEEEEvRT_NS_15iterator_traitsISS_E15difference_typeENS_26bidirectional_iterator_tagE, symObjAddr: 0x9958, symBinAddr: 0x10000CA30, symSize: 0xA4 }
  - { offsetInCU: 0x12E69, offset: 0x12E69, size: 0x8, addend: 0x0, symName: __ZNSt3__116forward_as_tupleB7v160006IJRKNS_12basic_stringIcNS_11char_traitsIcEENS_9allocatorIcEEEEEEENS_5tupleIJDpOT_EEESC_, symObjAddr: 0xA4CC, symBinAddr: 0x10000D5A4, symSize: 0x2C }
  - { offsetInCU: 0x12EA2, offset: 0x12EA2, size: 0x8, addend: 0x0, symName: __ZNSt3__116forward_as_tupleB7v160006IJEEENS_5tupleIJDpOT_EEES4_, symObjAddr: 0xA4F8, symBinAddr: 0x10000D5D0, symSize: 0x4 }
  - { offsetInCU: 0x12ED1, offset: 0x12ED1, size: 0x8, addend: 0x0, symName: __ZNSt3__13getB7v160006ILm0EJRKNS_12basic_stringIcNS_11char_traitsIcEENS_9allocatorIcEEEEEEERNS_13tuple_elementIXT_ENS_5tupleIJDpT0_EEEE4typeERSD_, symObjAddr: 0xA798, symBinAddr: 0x10000D870, symSize: 0x24 }
  - { offsetInCU: 0x12F9E, offset: 0x12F9E, size: 0x8, addend: 0x0, symName: __ZNSt3__116forward_as_tupleB7v160006IJRKiEEENS_5tupleIJDpOT_EEES6_, symObjAddr: 0xAE90, symBinAddr: 0x10000DF68, symSize: 0x2C }
  - { offsetInCU: 0x12FD7, offset: 0x12FD7, size: 0x8, addend: 0x0, symName: __ZNSt3__13getB7v160006ILm0EJRKiEEERNS_13tuple_elementIXT_ENS_5tupleIJDpT0_EEEE4typeERS7_, symObjAddr: 0xB158, symBinAddr: 0x10000E230, symSize: 0x24 }
  - { offsetInCU: 0x13062, offset: 0x13062, size: 0x8, addend: 0x0, symName: __ZNSt3__118__debug_db_erase_cB7v160006INS_10__list_impI3CowNS_9allocatorIS2_EEEEEEvPT_, symObjAddr: 0xB548, symBinAddr: 0x10000E620, symSize: 0x10 }
  - { offsetInCU: 0x13093, offset: 0x13093, size: 0x8, addend: 0x0, symName: __ZNSt3__125__debug_db_invalidate_allB7v160006INS_10__list_impI3CowNS_9allocatorIS2_EEEEEEvPT_, symObjAddr: 0xB6DC, symBinAddr: 0x10000E7B4, symSize: 0x10 }
  - { offsetInCU: 0x130F7, offset: 0x130F7, size: 0x8, addend: 0x0, symName: __ZNSt3__119__debug_db_insert_cB7v160006INS_12basic_stringIcNS_11char_traitsIcEENS_9allocatorIcEEEEEEvPT_, symObjAddr: 0xB9C4, symBinAddr: 0x10000EA9C, symSize: 0x10 }
  - { offsetInCU: 0x13128, offset: 0x13128, size: 0x8, addend: 0x0, symName: __ZNSt3__116__pad_and_outputB7v160006IcNS_11char_traitsIcEEEENS_19ostreambuf_iteratorIT_T0_EES6_PKS4_S8_S8_RNS_8ios_baseES4_, symObjAddr: 0xBD44, symBinAddr: 0x10000EE1C, symSize: 0x240 }
  - { offsetInCU: 0x131F7, offset: 0x131F7, size: 0x8, addend: 0x0, symName: __ZNSt3__19use_facetB7v160006INS_5ctypeIcEEEERKT_RKNS_6localeE, symObjAddr: 0xC2D8, symBinAddr: 0x10000F3B0, symSize: 0x2C }
  - { offsetInCU: 0x136C6, offset: 0x136C6, size: 0x8, addend: 0x0, symName: __ZNSt3__118__constexpr_strlenB7v160006EPKc, symObjAddr: 0xC370, symBinAddr: 0x10000F448, symSize: 0x24 }
  - { offsetInCU: 0x136F2, offset: 0x136F2, size: 0x8, addend: 0x0, symName: __ZNSt3__119__debug_db_insert_cB7v160006INS_4listI3CowNS_9allocatorIS2_EEEEEEvPT_, symObjAddr: 0xC480, symBinAddr: 0x10000F558, symSize: 0x10 }
  - { offsetInCU: 0x13723, offset: 0x13723, size: 0x8, addend: 0x0, symName: __ZNSt3__118__debug_db_erase_cB7v160006INS_6vectorINS_12basic_stringIcNS_11char_traitsIcEENS_9allocatorIcEEEENS5_IS7_EEEEEEvPT_, symObjAddr: 0xC9E4, symBinAddr: 0x10000FABC, symSize: 0x10 }
  - { offsetInCU: 0x13754, offset: 0x13754, size: 0x8, addend: 0x0, symName: __ZNSt3__112__to_addressB7v160006INS_12basic_stringIcNS_11char_traitsIcEENS_9allocatorIcEEEEEEPT_S8_, symObjAddr: 0xCB28, symBinAddr: 0x10000FC00, symSize: 0x14 }
  - { offsetInCU: 0x137A7, offset: 0x137A7, size: 0x8, addend: 0x0, symName: __ZNSt3__1eqB7v160006ERKNS_15__list_iteratorI3CowPvEES5_, symObjAddr: 0xD46C, symBinAddr: 0x100010544, symSize: 0x30 }
  - { offsetInCU: 0x137E4, offset: 0x137E4, size: 0x8, addend: 0x0, symName: __ZNSt3__112__to_addressB7v160006IcEEPT_S2_, symObjAddr: 0xD538, symBinAddr: 0x100010610, symSize: 0x14 }
  - { offsetInCU: 0x1384C, offset: 0x1384C, size: 0x8, addend: 0x0, symName: __ZNSt3__115__debug_db_swapB7v160006INS_12basic_stringIcNS_11char_traitsIcEENS_9allocatorIcEEEEEEvPT_S8_, symObjAddr: 0xD7F4, symBinAddr: 0x1000108CC, symSize: 0x14 }
  - { offsetInCU: 0x1388B, offset: 0x1388B, size: 0x8, addend: 0x0, symName: __ZNSt3__119__debug_db_insert_cB7v160006INS_6vectorINS_12basic_stringIcNS_11char_traitsIcEENS_9allocatorIcEEEENS5_IS7_EEEEEEvPT_, symObjAddr: 0xD948, symBinAddr: 0x100010A20, symSize: 0x10 }
  - { offsetInCU: 0x138BC, offset: 0x138BC, size: 0x8, addend: 0x0, symName: __ZNSt3__125__debug_db_invalidate_allB7v160006INS_12basic_stringIcNS_11char_traitsIcEENS_9allocatorIcEEEEEEvPT_, symObjAddr: 0xDF38, symBinAddr: 0x100011010, symSize: 0x10 }
  - { offsetInCU: 0x13AEF, offset: 0x13AEF, size: 0x8, addend: 0x0, symName: __ZNSt3__13maxB7v160006ImEERKT_S3_S3_, symObjAddr: 0xE580, symBinAddr: 0x100011658, symSize: 0x2C }
  - { offsetInCU: 0x13D33, offset: 0x13D33, size: 0x8, addend: 0x0, symName: __ZNSt3__120__throw_length_errorB7v160006EPKc, symObjAddr: 0xE664, symBinAddr: 0x10001173C, symSize: 0x64 }
  - { offsetInCU: 0x13D5B, offset: 0x13D5B, size: 0x8, addend: 0x0, symName: __ZNSt3__13maxB7v160006ImNS_6__lessImmEEEERKT_S5_S5_T0_, symObjAddr: 0xE748, symBinAddr: 0x100011820, symSize: 0x54 }
  - { offsetInCU: 0x13DB5, offset: 0x13DB5, size: 0x8, addend: 0x0, symName: __ZNSt3__119__allocate_at_leastB7v160006INS_9allocatorINS_12basic_stringIcNS_11char_traitsIcEENS1_IcEEEEEEEENS_19__allocation_resultINS_16allocator_traitsIT_E7pointerEEERSA_m, symObjAddr: 0xE8B8, symBinAddr: 0x100011990, symSize: 0x40 }
  - { offsetInCU: 0x13DF8, offset: 0x13DF8, size: 0x8, addend: 0x0, symName: __ZNSt3__142__uninitialized_allocator_move_if_noexceptB7v160006INS_9allocatorINS_12basic_stringIcNS_11char_traitsIcEENS1_IcEEEEEENS_16reverse_iteratorIPS6_EESA_SA_EET2_RT_T0_T1_SB_, symObjAddr: 0xEA70, symBinAddr: 0x100011B48, symSize: 0x12C }
  - { offsetInCU: 0x13E98, offset: 0x13E98, size: 0x8, addend: 0x0, symName: __ZNSt3__14swapB7v160006IPNS_12basic_stringIcNS_11char_traitsIcEENS_9allocatorIcEEEEEENS_9enable_ifIXaasr21is_move_constructibleIT_EE5valuesr18is_move_assignableIS9_EE5valueEvE4typeERS9_SC_, symObjAddr: 0xEBE8, symBinAddr: 0x100011CC0, symSize: 0x3C }
  - { offsetInCU: 0x13EE9, offset: 0x13EE9, size: 0x8, addend: 0x0, symName: __ZNSt3__125__debug_db_invalidate_allB7v160006INS_6vectorINS_12basic_stringIcNS_11char_traitsIcEENS_9allocatorIcEEEENS5_IS7_EEEEEEvPT_, symObjAddr: 0xECEC, symBinAddr: 0x100011DC4, symSize: 0x10 }
  - { offsetInCU: 0x13F1A, offset: 0x13F1A, size: 0x8, addend: 0x0, symName: __ZNSt3__122__make_exception_guardB7v160006INS_29_AllocatorDestroyRangeReverseINS_9allocatorINS_12basic_stringIcNS_11char_traitsIcEENS2_IcEEEEEENS_16reverse_iteratorIPS7_EEEEEENS_28__exception_guard_exceptionsIT_EESE_, symObjAddr: 0xECFC, symBinAddr: 0x100011DD4, symSize: 0x4C }
  - { offsetInCU: 0x13F50, offset: 0x13F50, size: 0x8, addend: 0x0, symName: __ZNSt3__1neB7v160006IPNS_12basic_stringIcNS_11char_traitsIcEENS_9allocatorIcEEEES7_EEbRKNS_16reverse_iteratorIT_EERKNS8_IT0_EE, symObjAddr: 0xED8C, symBinAddr: 0x100011E64, symSize: 0x48 }
  - { offsetInCU: 0x13F9C, offset: 0x13F9C, size: 0x8, addend: 0x0, symName: __ZNSt3__112__to_addressB7v160006INS_16reverse_iteratorIPNS_12basic_stringIcNS_11char_traitsIcEENS_9allocatorIcEEEEEEvEENS_5decayIDTclsr19__to_address_helperIT_EE6__callclsr3stdE7declvalIRKSB_EEEEE4typeESD_, symObjAddr: 0xEE08, symBinAddr: 0x100011EE0, symSize: 0x24 }
  - { offsetInCU: 0x13FFB, offset: 0x13FFB, size: 0x8, addend: 0x0, symName: __ZNSt3__119__allocator_destroyB7v160006INS_9allocatorINS_12basic_stringIcNS_11char_traitsIcEENS1_IcEEEEEENS_16reverse_iteratorINS8_IPS6_EEEESB_EEvRT_T0_T1_, symObjAddr: 0xF0E8, symBinAddr: 0x1000121C0, symSize: 0x70 }
  - { offsetInCU: 0x14060, offset: 0x14060, size: 0x8, addend: 0x0, symName: __ZNSt3__1neB7v160006INS_16reverse_iteratorIPNS_12basic_stringIcNS_11char_traitsIcEENS_9allocatorIcEEEEEES9_EEbRKNS1_IT_EERKNS1_IT0_EE, symObjAddr: 0xF194, symBinAddr: 0x10001226C, symSize: 0x60 }
  - { offsetInCU: 0x140AC, offset: 0x140AC, size: 0x8, addend: 0x0, symName: __ZNSt3__112__to_addressB7v160006INS_16reverse_iteratorINS1_IPNS_12basic_stringIcNS_11char_traitsIcEENS_9allocatorIcEEEEEEEEvEENS_5decayIDTclsr19__to_address_helperIT_EE6__callclsr3stdE7declvalIRKSC_EEEEE4typeESE_, symObjAddr: 0xF1F4, symBinAddr: 0x1000122CC, symSize: 0x24 }
  - { offsetInCU: 0x146DD, offset: 0x146DD, size: 0x8, addend: 0x0, symName: __ZSt28__throw_bad_array_new_lengthB7v160006v, symObjAddr: 0x4D74, symBinAddr: 0x100007E4C, symSize: 0x34 }
  - { offsetInCU: 0x15BE4, offset: 0x15BE4, size: 0x8, addend: 0x0, symName: __ZNSt3__16vectorINS_12basic_stringIcNS_11char_traitsIcEENS_9allocatorIcEEEENS4_IS6_EEE26__swap_out_circular_bufferERNS_14__split_bufferIS6_RS7_EE, symObjAddr: 0xE3C0, symBinAddr: 0x100011498, symSize: 0x118 }
  - { offsetInCU: 0x17DB8, offset: 0x17DB8, size: 0x8, addend: 0x0, symName: _main, symObjAddr: 0x0, symBinAddr: 0x1000030D8, symSize: 0xC5C }
  - { offsetInCU: 0x18233, offset: 0x18233, size: 0x8, addend: 0x0, symName: __ZNSt3__14listI3CowNS_9allocatorIS1_EEEC1B7v160006Ev, symObjAddr: 0xC5C, symBinAddr: 0x100003D34, symSize: 0x2C }
  - { offsetInCU: 0x18262, offset: 0x18262, size: 0x8, addend: 0x0, symName: __ZNSt3__112basic_stringIcNS_11char_traitsIcEENS_9allocatorIcEEEC1B7v160006IDnEEPKc, symObjAddr: 0xC88, symBinAddr: 0x100003D60, symSize: 0x34 }
  - { offsetInCU: 0x183D9, offset: 0x183D9, size: 0x8, addend: 0x0, symName: __ZNSt3__114basic_ifstreamIcNS_11char_traitsIcEEEC1ERKNS_12basic_stringIcS2_NS_9allocatorIcEEEEj, symObjAddr: 0xCBC, symBinAddr: 0x100003D94, symSize: 0x16C }
  - { offsetInCU: 0x18423, offset: 0x18423, size: 0x8, addend: 0x0, symName: __ZNKSt3__114basic_ifstreamIcNS_11char_traitsIcEEE7is_openEv, symObjAddr: 0xE28, symBinAddr: 0x100003F00, symSize: 0x2C }
  - { offsetInCU: 0x1844B, offset: 0x1844B, size: 0x8, addend: 0x0, symName: __ZNSt3__113basic_ostreamIcNS_11char_traitsIcEEElsB7v160006EPFRS3_S4_E, symObjAddr: 0xEE8, symBinAddr: 0x100003FC0, symSize: 0x2C }
  - { offsetInCU: 0x1847F, offset: 0x1847F, size: 0x8, addend: 0x0, symName: __ZNSt3__112basic_stringIcNS_11char_traitsIcEENS_9allocatorIcEEEC1B7v160006Ev, symObjAddr: 0xF6C, symBinAddr: 0x100004044, symSize: 0x2C }
  - { offsetInCU: 0x184A9, offset: 0x184A9, size: 0x8, addend: 0x0, symName: __ZNKSt3__19basic_iosIcNS_11char_traitsIcEEEcvbB7v160006Ev, symObjAddr: 0xFF4, symBinAddr: 0x1000040CC, symSize: 0x2C }
  - { offsetInCU: 0x184CE, offset: 0x184CE, size: 0x8, addend: 0x0, symName: __Z5splitRKNSt3__112basic_stringIcNS_11char_traitsIcEENS_9allocatorIcEEEEc, symObjAddr: 0x1020, symBinAddr: 0x1000040F8, symSize: 0x14C }
  - { offsetInCU: 0x18534, offset: 0x18534, size: 0x8, addend: 0x0, symName: __ZNSt3__16vectorINS_12basic_stringIcNS_11char_traitsIcEENS_9allocatorIcEEEENS4_IS6_EEE5beginB7v160006Ev, symObjAddr: 0x116C, symBinAddr: 0x100004244, symSize: 0x30 }
  - { offsetInCU: 0x1855C, offset: 0x1855C, size: 0x8, addend: 0x0, symName: __ZNSt3__16vectorINS_12basic_stringIcNS_11char_traitsIcEENS_9allocatorIcEEEENS4_IS6_EEE3endB7v160006Ev, symObjAddr: 0x119C, symBinAddr: 0x100004274, symSize: 0x30 }
  - { offsetInCU: 0x18584, offset: 0x18584, size: 0x8, addend: 0x0, symName: __ZNKSt3__111__wrap_iterIPNS_12basic_stringIcNS_11char_traitsIcEENS_9allocatorIcEEEEEdeB7v160006Ev, symObjAddr: 0x1200, symBinAddr: 0x1000042D8, symSize: 0x18 }
  - { offsetInCU: 0x185AA, offset: 0x185AA, size: 0x8, addend: 0x0, symName: __ZNSt3__111__wrap_iterIPNS_12basic_stringIcNS_11char_traitsIcEENS_9allocatorIcEEEEEppB7v160006Ev, symObjAddr: 0x12C4, symBinAddr: 0x10000439C, symSize: 0x20 }
  - { offsetInCU: 0x185D0, offset: 0x185D0, size: 0x8, addend: 0x0, symName: __ZNSt3__16vectorINS_12basic_stringIcNS_11char_traitsIcEENS_9allocatorIcEEEENS4_IS6_EEEixB7v160006Em, symObjAddr: 0x12E4, symBinAddr: 0x1000043BC, symSize: 0x2C }
  - { offsetInCU: 0x18607, offset: 0x18607, size: 0x8, addend: 0x0, symName: __ZN3CowC1E2tmNSt3__112basic_stringIcNS1_11char_traitsIcEENS1_9allocatorIcEEEES7_b, symObjAddr: 0x1310, symBinAddr: 0x1000043E8, symSize: 0x58 }
  - { offsetInCU: 0x1866C, offset: 0x1866C, size: 0x8, addend: 0x0, symName: __ZNSt3__14listI3CowNS_9allocatorIS1_EEE9push_backERKS1_, symObjAddr: 0x1368, symBinAddr: 0x100004440, symSize: 0xF4 }
  - { offsetInCU: 0x186C1, offset: 0x186C1, size: 0x8, addend: 0x0, symName: __ZN3CowD1Ev, symObjAddr: 0x145C, symBinAddr: 0x100004534, symSize: 0x2C }
  - { offsetInCU: 0x186ED, offset: 0x186ED, size: 0x8, addend: 0x0, symName: __ZNSt3__16vectorINS_12basic_stringIcNS_11char_traitsIcEENS_9allocatorIcEEEENS4_IS6_EEED1B7v160006Ev, symObjAddr: 0x1488, symBinAddr: 0x100004560, symSize: 0x2C }
  - { offsetInCU: 0x18717, offset: 0x18717, size: 0x8, addend: 0x0, symName: __ZNSt3__114basic_ifstreamIcNS_11char_traitsIcEEE5closeEv, symObjAddr: 0x14B4, symBinAddr: 0x10000458C, symSize: 0x58 }
  - { offsetInCU: 0x1873F, offset: 0x1873F, size: 0x8, addend: 0x0, symName: __ZNSt3__14listI3CowNS_9allocatorIS1_EEE5beginB7v160006Ev, symObjAddr: 0x150C, symBinAddr: 0x1000045E4, symSize: 0x2C }
  - { offsetInCU: 0x18765, offset: 0x18765, size: 0x8, addend: 0x0, symName: __ZNSt3__14listI3CowNS_9allocatorIS1_EEE3endB7v160006Ev, symObjAddr: 0x1538, symBinAddr: 0x100004610, symSize: 0x2C }
  - { offsetInCU: 0x1878B, offset: 0x1878B, size: 0x8, addend: 0x0, symName: __ZNKSt3__115__list_iteratorI3CowPvEdeB7v160006Ev, symObjAddr: 0x1598, symBinAddr: 0x100004670, symSize: 0x2C }
  - { offsetInCU: 0x187B1, offset: 0x187B1, size: 0x8, addend: 0x0, symName: __ZN3CowC1ERKS_, symObjAddr: 0x15C4, symBinAddr: 0x10000469C, symSize: 0x34 }
  - { offsetInCU: 0x187E6, offset: 0x187E6, size: 0x8, addend: 0x0, symName: __ZN3Cow15calculateWeightEv, symObjAddr: 0x15F8, symBinAddr: 0x1000046D0, symSize: 0xFF8 }
  - { offsetInCU: 0x1882B, offset: 0x1882B, size: 0x8, addend: 0x0, symName: __ZN3Cow10getFeedDayEv, symObjAddr: 0x25F0, symBinAddr: 0x1000056C8, symSize: 0x68 }
  - { offsetInCU: 0x1886D, offset: 0x1886D, size: 0x8, addend: 0x0, symName: __ZN3Cow11getFeedWeekEv, symObjAddr: 0x2658, symBinAddr: 0x100005730, symSize: 0x2C }
  - { offsetInCU: 0x18893, offset: 0x18893, size: 0x8, addend: 0x0, symName: __ZN3Cow12getFeedMonthEv, symObjAddr: 0x2684, symBinAddr: 0x10000575C, symSize: 0x2C }
  - { offsetInCU: 0x188B9, offset: 0x188B9, size: 0x8, addend: 0x0, symName: __ZN3Cow11getFeedYearEi, symObjAddr: 0x26B0, symBinAddr: 0x100005788, symSize: 0x30 }
  - { offsetInCU: 0x188ED, offset: 0x188ED, size: 0x8, addend: 0x0, symName: __ZNSt3__115__list_iteratorI3CowPvEppB7v160006Ev, symObjAddr: 0x26E0, symBinAddr: 0x1000057B8, symSize: 0x20 }
  - { offsetInCU: 0x18913, offset: 0x18913, size: 0x8, addend: 0x0, symName: __ZNSt3__112basic_stringIcNS_11char_traitsIcEENS_9allocatorIcEEE8pop_backB7v160006Ev, symObjAddr: 0x2700, symBinAddr: 0x1000057D8, symSize: 0x38 }
  - { offsetInCU: 0x18956, offset: 0x18956, size: 0x8, addend: 0x0, symName: __ZNSt3__114basic_ofstreamIcNS_11char_traitsIcEEEC1ERKNS_12basic_stringIcS2_NS_9allocatorIcEEEEj, symObjAddr: 0x27B8, symBinAddr: 0x100005890, symSize: 0x16C }
  - { offsetInCU: 0x189A0, offset: 0x189A0, size: 0x8, addend: 0x0, symName: __ZNKSt3__114basic_ofstreamIcNS_11char_traitsIcEEE7is_openEv, symObjAddr: 0x2924, symBinAddr: 0x1000059FC, symSize: 0x2C }
  - { offsetInCU: 0x189C8, offset: 0x189C8, size: 0x8, addend: 0x0, symName: __ZNSt3__114basic_ofstreamIcNS_11char_traitsIcEEE5closeEv, symObjAddr: 0x2950, symBinAddr: 0x100005A28, symSize: 0x58 }
  - { offsetInCU: 0x189F5, offset: 0x189F5, size: 0x8, addend: 0x0, symName: __ZNSt3__114basic_ofstreamIcNS_11char_traitsIcEEED1Ev, symObjAddr: 0x29A8, symBinAddr: 0x100005A80, symSize: 0x40 }
  - { offsetInCU: 0x18A27, offset: 0x18A27, size: 0x8, addend: 0x0, symName: __ZNSt3__114basic_ifstreamIcNS_11char_traitsIcEEED1Ev, symObjAddr: 0x29E8, symBinAddr: 0x100005AC0, symSize: 0x40 }
  - { offsetInCU: 0x18A54, offset: 0x18A54, size: 0x8, addend: 0x0, symName: __ZNSt3__14listI3CowNS_9allocatorIS1_EEED1Ev, symObjAddr: 0x2A28, symBinAddr: 0x100005B00, symSize: 0x2C }
  - { offsetInCU: 0x18A81, offset: 0x18A81, size: 0x8, addend: 0x0, symName: __ZNSt3__16vectorINS_12basic_stringIcNS_11char_traitsIcEENS_9allocatorIcEEEENS4_IS6_EEEC1B7v160006Ev, symObjAddr: 0x2A54, symBinAddr: 0x100005B2C, symSize: 0x2C }
  - { offsetInCU: 0x18B01, offset: 0x18B01, size: 0x8, addend: 0x0, symName: __ZNSt3__119basic_istringstreamIcNS_11char_traitsIcEENS_9allocatorIcEEEC1B7v160006ERKNS_12basic_stringIcS2_S4_EEj, symObjAddr: 0x2A80, symBinAddr: 0x100005B58, symSize: 0xFC }
  - { offsetInCU: 0x18B49, offset: 0x18B49, size: 0x8, addend: 0x0, symName: __ZNSt3__16vectorINS_12basic_stringIcNS_11char_traitsIcEENS_9allocatorIcEEEENS4_IS6_EEE9push_backB7v160006ERKS6_, symObjAddr: 0x2DB4, symBinAddr: 0x100005E8C, symSize: 0x6C }
  - { offsetInCU: 0x18B85, offset: 0x18B85, size: 0x8, addend: 0x0, symName: __ZNSt3__119basic_istringstreamIcNS_11char_traitsIcEENS_9allocatorIcEEED1Ev, symObjAddr: 0x2E20, symBinAddr: 0x100005EF8, symSize: 0x40 }
  - { offsetInCU: 0x18BB2, offset: 0x18BB2, size: 0x8, addend: 0x0, symName: __ZNKSt3__111__wrap_iterIPNS_12basic_stringIcNS_11char_traitsIcEENS_9allocatorIcEEEEE4baseB7v160006Ev, symObjAddr: 0x2EA8, symBinAddr: 0x100005F80, symSize: 0x18 }
  - { offsetInCU: 0x18BD8, offset: 0x18BD8, size: 0x8, addend: 0x0, symName: __ZN3CowC2E2tmNSt3__112basic_stringIcNS1_11char_traitsIcEENS1_9allocatorIcEEEES7_b, symObjAddr: 0x2EC0, symBinAddr: 0x100005F98, symSize: 0xD8 }
  - { offsetInCU: 0x18C3D, offset: 0x18C3D, size: 0x8, addend: 0x0, symName: __ZN3CowD2Ev, symObjAddr: 0x2F98, symBinAddr: 0x100006070, symSize: 0x3C }
  - { offsetInCU: 0x18C69, offset: 0x18C69, size: 0x8, addend: 0x0, symName: __ZN3CowC2ERKS_, symObjAddr: 0x2FD4, symBinAddr: 0x1000060AC, symSize: 0xA0 }
  - { offsetInCU: 0x18C9E, offset: 0x18C9E, size: 0x8, addend: 0x0, symName: __ZN3Cow6getAgeEv, symObjAddr: 0x3074, symBinAddr: 0x10000614C, symSize: 0x6C }
  - { offsetInCU: 0x18D0A, offset: 0x18D0A, size: 0x8, addend: 0x0, symName: __ZNSt3__13mapIiiNS_4lessIiEENS_9allocatorINS_4pairIKiiEEEEEC1B7v160006ESt16initializer_listIS6_ERKS2_, symObjAddr: 0x30E0, symBinAddr: 0x1000061B8, symSize: 0x44 }
  - { offsetInCU: 0x18D52, offset: 0x18D52, size: 0x8, addend: 0x0, symName: __ZNSt3__14pairIKNS_12basic_stringIcNS_11char_traitsIcEENS_9allocatorIcEEEENS_3mapIiiNS_4lessIiEENS4_INS0_IKiiEEEEEEEC1B7v160006ILb1ELPv0EEERS7_RKSE_, symObjAddr: 0x3124, symBinAddr: 0x1000061FC, symSize: 0x3C }
  - { offsetInCU: 0x18DA8, offset: 0x18DA8, size: 0x8, addend: 0x0, symName: __ZNSt3__13mapINS_12basic_stringIcNS_11char_traitsIcEENS_9allocatorIcEEEENS0_IiiNS_4lessIiEENS4_INS_4pairIKiiEEEEEENS7_IS6_EENS4_INS9_IKS6_SD_EEEEEC1B7v160006ESt16initializer_listISG_ERKSE_, symObjAddr: 0x3160, symBinAddr: 0x100006238, symSize: 0x44 }
  - { offsetInCU: 0x18DF0, offset: 0x18DF0, size: 0x8, addend: 0x0, symName: __ZNSt3__14pairIKNS_12basic_stringIcNS_11char_traitsIcEENS_9allocatorIcEEEENS_3mapIS6_NS8_IiiNS_4lessIiEENS4_INS0_IKiiEEEEEENS9_IS6_EENS4_INS0_IS7_SE_EEEEEEEC1B7v160006ILb1ELPv0EEERS7_RKSI_, symObjAddr: 0x31A4, symBinAddr: 0x10000627C, symSize: 0x3C }
  - { offsetInCU: 0x18E46, offset: 0x18E46, size: 0x8, addend: 0x0, symName: __ZNSt3__13mapINS_12basic_stringIcNS_11char_traitsIcEENS_9allocatorIcEEEENS0_IS6_NS0_IiiNS_4lessIiEENS4_INS_4pairIKiiEEEEEENS7_IS6_EENS4_INS9_IKS6_SD_EEEEEESE_NS4_INS9_ISF_SI_EEEEEC1B7v160006ESt16initializer_listISJ_ERKSE_, symObjAddr: 0x31E0, symBinAddr: 0x1000062B8, symSize: 0x44 }
  - { offsetInCU: 0x18E8E, offset: 0x18E8E, size: 0x8, addend: 0x0, symName: __ZNSt3__14pairIKNS_12basic_stringIcNS_11char_traitsIcEENS_9allocatorIcEEEENS_3mapIS6_NS8_IiiNS_4lessIiEENS4_INS0_IKiiEEEEEENS9_IS6_EENS4_INS0_IS7_SE_EEEEEEED1Ev, symObjAddr: 0x3224, symBinAddr: 0x1000062FC, symSize: 0x2C }
  - { offsetInCU: 0x18EBA, offset: 0x18EBA, size: 0x8, addend: 0x0, symName: __ZNSt3__13mapINS_12basic_stringIcNS_11char_traitsIcEENS_9allocatorIcEEEENS0_IiiNS_4lessIiEENS4_INS_4pairIKiiEEEEEENS7_IS6_EENS4_INS9_IKS6_SD_EEEEED1B7v160006Ev, symObjAddr: 0x3250, symBinAddr: 0x100006328, symSize: 0x2C }
  - { offsetInCU: 0x18EE4, offset: 0x18EE4, size: 0x8, addend: 0x0, symName: __ZNSt3__14pairIKNS_12basic_stringIcNS_11char_traitsIcEENS_9allocatorIcEEEENS_3mapIiiNS_4lessIiEENS4_INS0_IKiiEEEEEEED1Ev, symObjAddr: 0x327C, symBinAddr: 0x100006354, symSize: 0x2C }
  - { offsetInCU: 0x18F10, offset: 0x18F10, size: 0x8, addend: 0x0, symName: __ZNSt3__13mapIiiNS_4lessIiEENS_9allocatorINS_4pairIKiiEEEEED1B7v160006Ev, symObjAddr: 0x32A8, symBinAddr: 0x100006380, symSize: 0x2C }
  - { offsetInCU: 0x18F3A, offset: 0x18F3A, size: 0x8, addend: 0x0, symName: __ZNSt3__13mapINS_12basic_stringIcNS_11char_traitsIcEENS_9allocatorIcEEEENS0_IS6_NS0_IiiNS_4lessIiEENS4_INS_4pairIKiiEEEEEENS7_IS6_EENS4_INS9_IKS6_SD_EEEEEESE_NS4_INS9_ISF_SI_EEEEEixERSF_, symObjAddr: 0x32D4, symBinAddr: 0x1000063AC, symSize: 0x80 }
  - { offsetInCU: 0x18F71, offset: 0x18F71, size: 0x8, addend: 0x0, symName: __ZNSt3__13mapINS_12basic_stringIcNS_11char_traitsIcEENS_9allocatorIcEEEENS0_IiiNS_4lessIiEENS4_INS_4pairIKiiEEEEEENS7_IS6_EENS4_INS9_IKS6_SD_EEEEEixERSF_, symObjAddr: 0x3354, symBinAddr: 0x10000642C, symSize: 0x80 }
  - { offsetInCU: 0x18FA8, offset: 0x18FA8, size: 0x8, addend: 0x0, symName: __ZNSt3__13mapIiiNS_4lessIiEENS_9allocatorINS_4pairIKiiEEEEEixERS5_, symObjAddr: 0x33D4, symBinAddr: 0x1000064AC, symSize: 0x80 }
  - { offsetInCU: 0x18FDF, offset: 0x18FDF, size: 0x8, addend: 0x0, symName: __ZNSt3__13mapINS_12basic_stringIcNS_11char_traitsIcEENS_9allocatorIcEEEENS0_IS6_NS0_IiiNS_4lessIiEENS4_INS_4pairIKiiEEEEEENS7_IS6_EENS4_INS9_IKS6_SD_EEEEEESE_NS4_INS9_ISF_SI_EEEEED1B7v160006Ev, symObjAddr: 0x3454, symBinAddr: 0x10000652C, symSize: 0x2C }
  - { offsetInCU: 0x19009, offset: 0x19009, size: 0x8, addend: 0x0, symName: __ZNSt3__13mapIiiNS_4lessIiEENS_9allocatorINS_4pairIKiiEEEEEC2B7v160006ESt16initializer_listIS6_ERKS2_, symObjAddr: 0x3480, symBinAddr: 0x100006558, symSize: 0xA4 }
  - { offsetInCU: 0x19051, offset: 0x19051, size: 0x8, addend: 0x0, symName: __ZNSt3__119__map_value_compareIiNS_12__value_typeIiiEENS_4lessIiEELb1EEC1B7v160006ES4_, symObjAddr: 0x3524, symBinAddr: 0x1000065FC, symSize: 0x2C }
  - { offsetInCU: 0x1908A, offset: 0x1908A, size: 0x8, addend: 0x0, symName: __ZNSt3__16__treeINS_12__value_typeIiiEENS_19__map_value_compareIiS2_NS_4lessIiEELb1EEENS_9allocatorIS2_EEEC1ERKS6_, symObjAddr: 0x3550, symBinAddr: 0x100006628, symSize: 0x34 }
  - { offsetInCU: 0x190C5, offset: 0x190C5, size: 0x8, addend: 0x0, symName: __ZNSt3__13mapIiiNS_4lessIiEENS_9allocatorINS_4pairIKiiEEEEE6insertB7v160006IPKS6_EEvT_SC_, symObjAddr: 0x3584, symBinAddr: 0x10000665C, symSize: 0x8C }
  - { offsetInCU: 0x1912F, offset: 0x1912F, size: 0x8, addend: 0x0, symName: __ZNKSt16initializer_listINSt3__14pairIKiiEEE5beginB7v160006Ev, symObjAddr: 0x3610, symBinAddr: 0x1000066E8, symSize: 0x18 }
  - { offsetInCU: 0x19155, offset: 0x19155, size: 0x8, addend: 0x0, symName: __ZNKSt16initializer_listINSt3__14pairIKiiEEE3endB7v160006Ev, symObjAddr: 0x3628, symBinAddr: 0x100006700, symSize: 0x20 }
  - { offsetInCU: 0x1917B, offset: 0x1917B, size: 0x8, addend: 0x0, symName: __ZNSt3__16__treeINS_12__value_typeIiiEENS_19__map_value_compareIiS2_NS_4lessIiEELb1EEENS_9allocatorIS2_EEED1Ev, symObjAddr: 0x3648, symBinAddr: 0x100006720, symSize: 0x2C }
  - { offsetInCU: 0x191A7, offset: 0x191A7, size: 0x8, addend: 0x0, symName: __ZNSt3__119__map_value_compareIiNS_12__value_typeIiiEENS_4lessIiEELb1EEC2B7v160006ES4_, symObjAddr: 0x3674, symBinAddr: 0x10000674C, symSize: 0x14 }
  - { offsetInCU: 0x191E0, offset: 0x191E0, size: 0x8, addend: 0x0, symName: __ZNSt3__16__treeINS_12__value_typeIiiEENS_19__map_value_compareIiS2_NS_4lessIiEELb1EEENS_9allocatorIS2_EEEC2ERKS6_, symObjAddr: 0x3688, symBinAddr: 0x100006760, symSize: 0x7C }
  - { offsetInCU: 0x1921B, offset: 0x1921B, size: 0x8, addend: 0x0, symName: __ZNSt3__117__compressed_pairINS_15__tree_end_nodeIPNS_16__tree_node_baseIPvEEEENS_9allocatorINS_11__tree_nodeINS_12__value_typeIiiEES3_EEEEEC1B7v160006ILb1EvEEv, symObjAddr: 0x3704, symBinAddr: 0x1000067DC, symSize: 0x2C }
  - { offsetInCU: 0x19256, offset: 0x19256, size: 0x8, addend: 0x0, symName: __ZNSt3__117__compressed_pairImNS_19__map_value_compareIiNS_12__value_typeIiiEENS_4lessIiEELb1EEEEC1B7v160006IiRKS6_EEOT_OT0_, symObjAddr: 0x373C, symBinAddr: 0x100006814, symSize: 0x3C }
  - { offsetInCU: 0x192AE, offset: 0x192AE, size: 0x8, addend: 0x0, symName: __ZNSt3__16__treeINS_12__value_typeIiiEENS_19__map_value_compareIiS2_NS_4lessIiEELb1EEENS_9allocatorIS2_EEE10__end_nodeB7v160006Ev, symObjAddr: 0x3778, symBinAddr: 0x100006850, symSize: 0x2C }
  - { offsetInCU: 0x192D4, offset: 0x192D4, size: 0x8, addend: 0x0, symName: __ZNSt3__16__treeINS_12__value_typeIiiEENS_19__map_value_compareIiS2_NS_4lessIiEELb1EEENS_9allocatorIS2_EEE12__begin_nodeB7v160006Ev, symObjAddr: 0x37A4, symBinAddr: 0x10000687C, symSize: 0x14 }
  - { offsetInCU: 0x192FA, offset: 0x192FA, size: 0x8, addend: 0x0, symName: __ZNSt3__117__compressed_pairINS_15__tree_end_nodeIPNS_16__tree_node_baseIPvEEEENS_9allocatorINS_11__tree_nodeINS_12__value_typeIiiEES3_EEEEEC2B7v160006ILb1EvEEv, symObjAddr: 0x37B8, symBinAddr: 0x100006890, symSize: 0x34 }
  - { offsetInCU: 0x1932F, offset: 0x1932F, size: 0x8, addend: 0x0, symName: __ZNSt3__122__compressed_pair_elemINS_15__tree_end_nodeIPNS_16__tree_node_baseIPvEEEELi0ELb0EEC2B7v160006ENS_16__value_init_tagE, symObjAddr: 0x37EC, symBinAddr: 0x1000068C4, symSize: 0x2C }
  - { offsetInCU: 0x19363, offset: 0x19363, size: 0x8, addend: 0x0, symName: __ZNSt3__122__compressed_pair_elemINS_9allocatorINS_11__tree_nodeINS_12__value_typeIiiEEPvEEEELi1ELb1EEC2B7v160006ENS_16__value_init_tagE, symObjAddr: 0x3818, symBinAddr: 0x1000068F0, symSize: 0x2C }
  - { offsetInCU: 0x19397, offset: 0x19397, size: 0x8, addend: 0x0, symName: __ZNSt3__115__tree_end_nodeIPNS_16__tree_node_baseIPvEEEC1B7v160006Ev, symObjAddr: 0x3844, symBinAddr: 0x10000691C, symSize: 0x2C }
  - { offsetInCU: 0x193C1, offset: 0x193C1, size: 0x8, addend: 0x0, symName: __ZNSt3__115__tree_end_nodeIPNS_16__tree_node_baseIPvEEEC2B7v160006Ev, symObjAddr: 0x3870, symBinAddr: 0x100006948, symSize: 0x18 }
  - { offsetInCU: 0x193EB, offset: 0x193EB, size: 0x8, addend: 0x0, symName: __ZNSt3__19allocatorINS_11__tree_nodeINS_12__value_typeIiiEEPvEEEC2B7v160006Ev, symObjAddr: 0x3888, symBinAddr: 0x100006960, symSize: 0x2C }
  - { offsetInCU: 0x19415, offset: 0x19415, size: 0x8, addend: 0x0, symName: __ZNSt3__116__non_trivial_ifILb1ENS_9allocatorINS_11__tree_nodeINS_12__value_typeIiiEEPvEEEEEC2B7v160006Ev, symObjAddr: 0x38B4, symBinAddr: 0x10000698C, symSize: 0x14 }
  - { offsetInCU: 0x1943F, offset: 0x1943F, size: 0x8, addend: 0x0, symName: __ZNSt3__117__compressed_pairImNS_19__map_value_compareIiNS_12__value_typeIiiEENS_4lessIiEELb1EEEEC2B7v160006IiRKS6_EEOT_OT0_, symObjAddr: 0x38C8, symBinAddr: 0x1000069A0, symSize: 0x44 }
  - { offsetInCU: 0x19497, offset: 0x19497, size: 0x8, addend: 0x0, symName: __ZNSt3__122__compressed_pair_elemImLi0ELb0EEC2B7v160006IivEEOT_, symObjAddr: 0x390C, symBinAddr: 0x1000069E4, symSize: 0x24 }
  - { offsetInCU: 0x194D9, offset: 0x194D9, size: 0x8, addend: 0x0, symName: __ZNSt3__122__compressed_pair_elemINS_19__map_value_compareIiNS_12__value_typeIiiEENS_4lessIiEELb1EEELi1ELb1EEC2B7v160006IRKS6_vEEOT_, symObjAddr: 0x3930, symBinAddr: 0x100006A08, symSize: 0x18 }
  - { offsetInCU: 0x1951B, offset: 0x1951B, size: 0x8, addend: 0x0, symName: __ZNSt3__114pointer_traitsIPNS_15__tree_end_nodeIPNS_16__tree_node_baseIPvEEEEE10pointer_toB7v160006ERS6_, symObjAddr: 0x3948, symBinAddr: 0x100006A20, symSize: 0x14 }
  - { offsetInCU: 0x1953E, offset: 0x1953E, size: 0x8, addend: 0x0, symName: __ZNSt3__117__compressed_pairINS_15__tree_end_nodeIPNS_16__tree_node_baseIPvEEEENS_9allocatorINS_11__tree_nodeINS_12__value_typeIiiEES3_EEEEE5firstB7v160006Ev, symObjAddr: 0x395C, symBinAddr: 0x100006A34, symSize: 0x24 }
  - { offsetInCU: 0x19564, offset: 0x19564, size: 0x8, addend: 0x0, symName: __ZNSt3__122__compressed_pair_elemINS_15__tree_end_nodeIPNS_16__tree_node_baseIPvEEEELi0ELb0EE5__getB7v160006Ev, symObjAddr: 0x3980, symBinAddr: 0x100006A58, symSize: 0x14 }
  - { offsetInCU: 0x1958A, offset: 0x1958A, size: 0x8, addend: 0x0, symName: __ZNKSt3__13mapIiiNS_4lessIiEENS_9allocatorINS_4pairIKiiEEEEE4cendB7v160006Ev, symObjAddr: 0x3994, symBinAddr: 0x100006A6C, symSize: 0x2C }
  - { offsetInCU: 0x195B0, offset: 0x195B0, size: 0x8, addend: 0x0, symName: __ZNSt3__13mapIiiNS_4lessIiEENS_9allocatorINS_4pairIKiiEEEEE6insertB7v160006ENS_20__map_const_iteratorINS_21__tree_const_iteratorINS_12__value_typeIiiEEPNS_11__tree_nodeISC_PvEElEEEERKS6_, symObjAddr: 0x39C0, symBinAddr: 0x100006A98, symSize: 0x50 }
  - { offsetInCU: 0x195F4, offset: 0x195F4, size: 0x8, addend: 0x0, symName: __ZNSt3__120__map_const_iteratorINS_21__tree_const_iteratorINS_12__value_typeIiiEEPNS_11__tree_nodeIS3_PvEElEEEC1B7v160006ES8_, symObjAddr: 0x3A10, symBinAddr: 0x100006AE8, symSize: 0x34 }
  - { offsetInCU: 0x1962D, offset: 0x1962D, size: 0x8, addend: 0x0, symName: __ZNKSt3__13mapIiiNS_4lessIiEENS_9allocatorINS_4pairIKiiEEEEE3endB7v160006Ev, symObjAddr: 0x3A44, symBinAddr: 0x100006B1C, symSize: 0x38 }
  - { offsetInCU: 0x19653, offset: 0x19653, size: 0x8, addend: 0x0, symName: __ZNKSt3__16__treeINS_12__value_typeIiiEENS_19__map_value_compareIiS2_NS_4lessIiEELb1EEENS_9allocatorIS2_EEE3endB7v160006Ev, symObjAddr: 0x3A7C, symBinAddr: 0x100006B54, symSize: 0x34 }
  - { offsetInCU: 0x19679, offset: 0x19679, size: 0x8, addend: 0x0, symName: __ZNKSt3__16__treeINS_12__value_typeIiiEENS_19__map_value_compareIiS2_NS_4lessIiEELb1EEENS_9allocatorIS2_EEE10__end_nodeB7v160006Ev, symObjAddr: 0x3AB0, symBinAddr: 0x100006B88, symSize: 0x2C }
  - { offsetInCU: 0x1969F, offset: 0x1969F, size: 0x8, addend: 0x0, symName: __ZNSt3__121__tree_const_iteratorINS_12__value_typeIiiEEPNS_11__tree_nodeIS2_PvEElEC1B7v160006EPNS_15__tree_end_nodeIPNS_16__tree_node_baseIS4_EEEE, symObjAddr: 0x3ADC, symBinAddr: 0x100006BB4, symSize: 0x34 }
  - { offsetInCU: 0x196D8, offset: 0x196D8, size: 0x8, addend: 0x0, symName: __ZNKSt3__117__compressed_pairINS_15__tree_end_nodeIPNS_16__tree_node_baseIPvEEEENS_9allocatorINS_11__tree_nodeINS_12__value_typeIiiEES3_EEEEE5firstB7v160006Ev, symObjAddr: 0x3B10, symBinAddr: 0x100006BE8, symSize: 0x24 }
  - { offsetInCU: 0x196FE, offset: 0x196FE, size: 0x8, addend: 0x0, symName: __ZNKSt3__122__compressed_pair_elemINS_15__tree_end_nodeIPNS_16__tree_node_baseIPvEEEELi0ELb0EE5__getB7v160006Ev, symObjAddr: 0x3B34, symBinAddr: 0x100006C0C, symSize: 0x14 }
  - { offsetInCU: 0x19724, offset: 0x19724, size: 0x8, addend: 0x0, symName: __ZNSt3__121__tree_const_iteratorINS_12__value_typeIiiEEPNS_11__tree_nodeIS2_PvEElEC2B7v160006EPNS_15__tree_end_nodeIPNS_16__tree_node_baseIS4_EEEE, symObjAddr: 0x3B48, symBinAddr: 0x100006C20, symSize: 0x20 }
  - { offsetInCU: 0x1975D, offset: 0x1975D, size: 0x8, addend: 0x0, symName: __ZNSt3__16__treeINS_12__value_typeIiiEENS_19__map_value_compareIiS2_NS_4lessIiEELb1EEENS_9allocatorIS2_EEE15__insert_uniqueB7v160006ENS_21__tree_const_iteratorIS2_PNS_11__tree_nodeIS2_PvEElEERKNS_4pairIKiiEE, symObjAddr: 0x3B68, symBinAddr: 0x100006C40, symSize: 0x64 }
  - { offsetInCU: 0x197A1, offset: 0x197A1, size: 0x8, addend: 0x0, symName: __ZNSt3__114__map_iteratorINS_15__tree_iteratorINS_12__value_typeIiiEEPNS_11__tree_nodeIS3_PvEElEEEC1B7v160006ES8_, symObjAddr: 0x3BCC, symBinAddr: 0x100006CA4, symSize: 0x34 }
  - { offsetInCU: 0x197DA, offset: 0x197DA, size: 0x8, addend: 0x0, symName: __ZNSt3__16__treeINS_12__value_typeIiiEENS_19__map_value_compareIiS2_NS_4lessIiEELb1EEENS_9allocatorIS2_EEE30__emplace_hint_unique_key_argsIiJRKNS_4pairIKiiEEEEENSB_INS_15__tree_iteratorIS2_PNS_11__tree_nodeIS2_PvEElEEbEENS_21__tree_const_iteratorIS2_SK_lEERKT_DpOT0_, symObjAddr: 0x3C00, symBinAddr: 0x100006CD8, symSize: 0x104 }
  - { offsetInCU: 0x198A6, offset: 0x198A6, size: 0x8, addend: 0x0, symName: __ZNSt3__122__tree_key_value_typesINS_12__value_typeIiiEEE9__get_keyB7v160006IKNS_4pairIKiiEEEENS_9enable_ifIXsr17__is_same_uncvrefIT_S7_EE5valueERS6_E4typeERSA_, symObjAddr: 0x3D04, symBinAddr: 0x100006DDC, symSize: 0x14 }
  - { offsetInCU: 0x198D3, offset: 0x198D3, size: 0x8, addend: 0x0, symName: __ZNSt3__16__treeINS_12__value_typeIiiEENS_19__map_value_compareIiS2_NS_4lessIiEELb1EEENS_9allocatorIS2_EEE12__find_equalIiEERPNS_16__tree_node_baseIPvEENS_21__tree_const_iteratorIS2_PNS_11__tree_nodeIS2_SC_EElEERPNS_15__tree_end_nodeISE_EESF_RKT_, symObjAddr: 0x3D18, symBinAddr: 0x100006DF0, symSize: 0x304 }
  - { offsetInCU: 0x1997C, offset: 0x1997C, size: 0x8, addend: 0x0, symName: __ZNSt3__16__treeINS_12__value_typeIiiEENS_19__map_value_compareIiS2_NS_4lessIiEELb1EEENS_9allocatorIS2_EEE16__construct_nodeIJRKNS_4pairIKiiEEEEENS_10unique_ptrINS_11__tree_nodeIS2_PvEENS_22__tree_node_destructorINS7_ISJ_EEEEEEDpOT_, symObjAddr: 0x401C, symBinAddr: 0x1000070F4, symSize: 0x110 }
  - { offsetInCU: 0x199DD, offset: 0x199DD, size: 0x8, addend: 0x0, symName: __ZNSt3__16__treeINS_12__value_typeIiiEENS_19__map_value_compareIiS2_NS_4lessIiEELb1EEENS_9allocatorIS2_EEE16__insert_node_atEPNS_15__tree_end_nodeIPNS_16__tree_node_baseIPvEEEERSE_SE_, symObjAddr: 0x412C, symBinAddr: 0x100007204, symSize: 0xCC }
  - { offsetInCU: 0x19A32, offset: 0x19A32, size: 0x8, addend: 0x0, symName: __ZNKSt3__110unique_ptrINS_11__tree_nodeINS_12__value_typeIiiEEPvEENS_22__tree_node_destructorINS_9allocatorIS5_EEEEE3getB7v160006Ev, symObjAddr: 0x41F8, symBinAddr: 0x1000072D0, symSize: 0x28 }
  - { offsetInCU: 0x19A58, offset: 0x19A58, size: 0x8, addend: 0x0, symName: __ZNSt3__110unique_ptrINS_11__tree_nodeINS_12__value_typeIiiEEPvEENS_22__tree_node_destructorINS_9allocatorIS5_EEEEE7releaseB7v160006Ev, symObjAddr: 0x4220, symBinAddr: 0x1000072F8, symSize: 0x44 }
  - { offsetInCU: 0x19A8D, offset: 0x19A8D, size: 0x8, addend: 0x0, symName: __ZNSt3__110unique_ptrINS_11__tree_nodeINS_12__value_typeIiiEEPvEENS_22__tree_node_destructorINS_9allocatorIS5_EEEEED1B7v160006Ev, symObjAddr: 0x4264, symBinAddr: 0x10000733C, symSize: 0x2C }
  - { offsetInCU: 0x19AB7, offset: 0x19AB7, size: 0x8, addend: 0x0, symName: __ZNSt3__115__tree_iteratorINS_12__value_typeIiiEEPNS_11__tree_nodeIS2_PvEElEC1B7v160006ES6_, symObjAddr: 0x4290, symBinAddr: 0x100007368, symSize: 0x34 }
  - { offsetInCU: 0x19AF6, offset: 0x19AF6, size: 0x8, addend: 0x0, symName: __ZNSt3__14pairINS_15__tree_iteratorINS_12__value_typeIiiEEPNS_11__tree_nodeIS3_PvEElEEbEC1B7v160006IS8_RbLS5_0EEEOT_OT0_, symObjAddr: 0x42C4, symBinAddr: 0x10000739C, symSize: 0x3C }
  - { offsetInCU: 0x19B54, offset: 0x19B54, size: 0x8, addend: 0x0, symName: __ZNSt3__16__treeINS_12__value_typeIiiEENS_19__map_value_compareIiS2_NS_4lessIiEELb1EEENS_9allocatorIS2_EEE3endB7v160006Ev, symObjAddr: 0x4330, symBinAddr: 0x100007408, symSize: 0x34 }
  - { offsetInCU: 0x19B7A, offset: 0x19B7A, size: 0x8, addend: 0x0, symName: __ZNSt3__121__tree_const_iteratorINS_12__value_typeIiiEEPNS_11__tree_nodeIS2_PvEElEC1B7v160006ENS_15__tree_iteratorIS2_S6_lEE, symObjAddr: 0x4364, symBinAddr: 0x10000743C, symSize: 0x34 }
  - { offsetInCU: 0x19BB3, offset: 0x19BB3, size: 0x8, addend: 0x0, symName: __ZNSt3__16__treeINS_12__value_typeIiiEENS_19__map_value_compareIiS2_NS_4lessIiEELb1EEENS_9allocatorIS2_EEE10value_compB7v160006Ev, symObjAddr: 0x4398, symBinAddr: 0x100007470, symSize: 0x28 }
  - { offsetInCU: 0x19BD9, offset: 0x19BD9, size: 0x8, addend: 0x0, symName: __ZNKSt3__119__map_value_compareIiNS_12__value_typeIiiEENS_4lessIiEELb1EEclB7v160006ERKiRKS2_, symObjAddr: 0x43C0, symBinAddr: 0x100007498, symSize: 0x50 }
  - { offsetInCU: 0x19C1D, offset: 0x19C1D, size: 0x8, addend: 0x0, symName: __ZNKSt3__121__tree_const_iteratorINS_12__value_typeIiiEEPNS_11__tree_nodeIS2_PvEElEdeB7v160006Ev, symObjAddr: 0x4410, symBinAddr: 0x1000074E8, symSize: 0x28 }
  - { offsetInCU: 0x19C43, offset: 0x19C43, size: 0x8, addend: 0x0, symName: __ZNSt3__16__treeINS_12__value_typeIiiEENS_19__map_value_compareIiS2_NS_4lessIiEELb1EEENS_9allocatorIS2_EEE5beginB7v160006Ev, symObjAddr: 0x4438, symBinAddr: 0x100007510, symSize: 0x34 }
  - { offsetInCU: 0x19C69, offset: 0x19C69, size: 0x8, addend: 0x0, symName: __ZNKSt3__119__map_value_compareIiNS_12__value_typeIiiEENS_4lessIiEELb1EEclB7v160006ERKS2_RKi, symObjAddr: 0x446C, symBinAddr: 0x100007544, symSize: 0x48 }
  - { offsetInCU: 0x19CAD, offset: 0x19CAD, size: 0x8, addend: 0x0, symName: __ZNSt3__121__tree_const_iteratorINS_12__value_typeIiiEEPNS_11__tree_nodeIS2_PvEElEmmB7v160006Ev, symObjAddr: 0x44B4, symBinAddr: 0x10000758C, symSize: 0x38 }
  - { offsetInCU: 0x19CD3, offset: 0x19CD3, size: 0x8, addend: 0x0, symName: __ZNSt3__16__treeINS_12__value_typeIiiEENS_19__map_value_compareIiS2_NS_4lessIiEELb1EEENS_9allocatorIS2_EEE12__find_equalIiEERPNS_16__tree_node_baseIPvEERPNS_15__tree_end_nodeISE_EERKT_, symObjAddr: 0x44EC, symBinAddr: 0x1000075C4, symSize: 0x184 }
  - { offsetInCU: 0x19D40, offset: 0x19D40, size: 0x8, addend: 0x0, symName: __ZNKSt3__121__tree_const_iteratorINS_12__value_typeIiiEEPNS_11__tree_nodeIS2_PvEElE8__get_npB7v160006Ev, symObjAddr: 0x46C0, symBinAddr: 0x100007798, symSize: 0x18 }
  - { offsetInCU: 0x19D66, offset: 0x19D66, size: 0x8, addend: 0x0, symName: __ZNSt3__115__tree_iteratorINS_12__value_typeIiiEEPNS_11__tree_nodeIS2_PvEElEC1B7v160006EPNS_15__tree_end_nodeIPNS_16__tree_node_baseIS4_EEEE, symObjAddr: 0x46D8, symBinAddr: 0x1000077B0, symSize: 0x34 }
  - { offsetInCU: 0x19D9F, offset: 0x19D9F, size: 0x8, addend: 0x0, symName: __ZNSt3__115__tree_iteratorINS_12__value_typeIiiEEPNS_11__tree_nodeIS2_PvEElEC2B7v160006EPNS_15__tree_end_nodeIPNS_16__tree_node_baseIS4_EEEE, symObjAddr: 0x470C, symBinAddr: 0x1000077E4, symSize: 0x20 }
  - { offsetInCU: 0x19DD8, offset: 0x19DD8, size: 0x8, addend: 0x0, symName: __ZNSt3__121__tree_const_iteratorINS_12__value_typeIiiEEPNS_11__tree_nodeIS2_PvEElEC2B7v160006ENS_15__tree_iteratorIS2_S6_lEE, symObjAddr: 0x472C, symBinAddr: 0x100007804, symSize: 0x20 }
  - { offsetInCU: 0x19E11, offset: 0x19E11, size: 0x8, addend: 0x0, symName: __ZNSt3__117__compressed_pairImNS_19__map_value_compareIiNS_12__value_typeIiiEENS_4lessIiEELb1EEEE6secondB7v160006Ev, symObjAddr: 0x474C, symBinAddr: 0x100007824, symSize: 0x24 }
  - { offsetInCU: 0x19E37, offset: 0x19E37, size: 0x8, addend: 0x0, symName: __ZNSt3__122__compressed_pair_elemINS_19__map_value_compareIiNS_12__value_typeIiiEENS_4lessIiEELb1EEELi1ELb1EE5__getB7v160006Ev, symObjAddr: 0x4770, symBinAddr: 0x100007848, symSize: 0x14 }
  - { offsetInCU: 0x19E5D, offset: 0x19E5D, size: 0x8, addend: 0x0, symName: __ZNKSt3__14lessIiEclB7v160006ERKiS3_, symObjAddr: 0x4784, symBinAddr: 0x10000785C, symSize: 0x34 }
  - { offsetInCU: 0x19EA1, offset: 0x19EA1, size: 0x8, addend: 0x0, symName: __ZNKSt3__112__value_typeIiiE11__get_valueB7v160006Ev, symObjAddr: 0x47B8, symBinAddr: 0x100007890, symSize: 0x14 }
  - { offsetInCU: 0x19EC7, offset: 0x19EC7, size: 0x8, addend: 0x0, symName: __ZNKSt3__116__tree_node_baseIPvE15__parent_unsafeB7v160006Ev, symObjAddr: 0x48DC, symBinAddr: 0x1000079B4, symSize: 0x18 }
  - { offsetInCU: 0x19EED, offset: 0x19EED, size: 0x8, addend: 0x0, symName: __ZNKSt3__16__treeINS_12__value_typeIiiEENS_19__map_value_compareIiS2_NS_4lessIiEELb1EEENS_9allocatorIS2_EEE6__rootB7v160006Ev, symObjAddr: 0x48F4, symBinAddr: 0x1000079CC, symSize: 0x28 }
  - { offsetInCU: 0x19F13, offset: 0x19F13, size: 0x8, addend: 0x0, symName: __ZNKSt3__16__treeINS_12__value_typeIiiEENS_19__map_value_compareIiS2_NS_4lessIiEELb1EEENS_9allocatorIS2_EEE10__root_ptrEv, symObjAddr: 0x491C, symBinAddr: 0x1000079F4, symSize: 0x24 }
  - { offsetInCU: 0x19F39, offset: 0x19F39, size: 0x8, addend: 0x0, symName: __ZNSt3__121__tree_const_iteratorINS_12__value_typeIiiEEPNS_11__tree_nodeIS2_PvEElEppB7v160006Ev, symObjAddr: 0x4A48, symBinAddr: 0x100007B20, symSize: 0x38 }
  - { offsetInCU: 0x19F5F, offset: 0x19F5F, size: 0x8, addend: 0x0, symName: __ZNSt3__16__treeINS_12__value_typeIiiEENS_19__map_value_compareIiS2_NS_4lessIiEELb1EEENS_9allocatorIS2_EEE12__node_allocB7v160006Ev, symObjAddr: 0x4B40, symBinAddr: 0x100007C18, symSize: 0x28 }
  - { offsetInCU: 0x19F85, offset: 0x19F85, size: 0x8, addend: 0x0, symName: __ZNSt3__116allocator_traitsINS_9allocatorINS_11__tree_nodeINS_12__value_typeIiiEEPvEEEEE8allocateB7v160006ERS7_m, symObjAddr: 0x4B68, symBinAddr: 0x100007C40, symSize: 0x2C }
  - { offsetInCU: 0x19FB8, offset: 0x19FB8, size: 0x8, addend: 0x0, symName: __ZNSt3__122__tree_node_destructorINS_9allocatorINS_11__tree_nodeINS_12__value_typeIiiEEPvEEEEEC1B7v160006ERS7_b, symObjAddr: 0x4B94, symBinAddr: 0x100007C6C, symSize: 0x48 }
  - { offsetInCU: 0x1A006, offset: 0x1A006, size: 0x8, addend: 0x0, symName: __ZNSt3__110unique_ptrINS_11__tree_nodeINS_12__value_typeIiiEEPvEENS_22__tree_node_destructorINS_9allocatorIS5_EEEEEC1B7v160006ILb1EvEEPS5_NS_16__dependent_typeINS_27__unique_ptr_deleter_sfinaeIS9_EEXT_EE20__good_rval_ref_typeE, symObjAddr: 0x4BDC, symBinAddr: 0x100007CB4, symSize: 0x3C }
  - { offsetInCU: 0x1A057, offset: 0x1A057, size: 0x8, addend: 0x0, symName: __ZNSt3__116allocator_traitsINS_9allocatorINS_11__tree_nodeINS_12__value_typeIiiEEPvEEEEE9constructB7v160006INS_4pairIKiiEEJRKSC_EvEEvRS7_PT_DpOT0_, symObjAddr: 0x4C18, symBinAddr: 0x100007CF0, symSize: 0x34 }
  - { offsetInCU: 0x1A0AE, offset: 0x1A0AE, size: 0x8, addend: 0x0, symName: __ZNSt3__122__tree_key_value_typesINS_12__value_typeIiiEEE9__get_ptrB7v160006ERS2_, symObjAddr: 0x4C4C, symBinAddr: 0x100007D24, symSize: 0x24 }
  - { offsetInCU: 0x1A0D2, offset: 0x1A0D2, size: 0x8, addend: 0x0, symName: __ZNKSt3__110unique_ptrINS_11__tree_nodeINS_12__value_typeIiiEEPvEENS_22__tree_node_destructorINS_9allocatorIS5_EEEEEptB7v160006Ev, symObjAddr: 0x4C70, symBinAddr: 0x100007D48, symSize: 0x28 }
  - { offsetInCU: 0x1A0F8, offset: 0x1A0F8, size: 0x8, addend: 0x0, symName: __ZNSt3__110unique_ptrINS_11__tree_nodeINS_12__value_typeIiiEEPvEENS_22__tree_node_destructorINS_9allocatorIS5_EEEEE11get_deleterB7v160006Ev, symObjAddr: 0x4C98, symBinAddr: 0x100007D70, symSize: 0x24 }
  - { offsetInCU: 0x1A11E, offset: 0x1A11E, size: 0x8, addend: 0x0, symName: __ZNSt3__117__compressed_pairINS_15__tree_end_nodeIPNS_16__tree_node_baseIPvEEEENS_9allocatorINS_11__tree_nodeINS_12__value_typeIiiEES3_EEEEE6secondB7v160006Ev, symObjAddr: 0x4CBC, symBinAddr: 0x100007D94, symSize: 0x24 }
  - { offsetInCU: 0x1A144, offset: 0x1A144, size: 0x8, addend: 0x0, symName: __ZNSt3__122__compressed_pair_elemINS_9allocatorINS_11__tree_nodeINS_12__value_typeIiiEEPvEEEELi1ELb1EE5__getB7v160006Ev, symObjAddr: 0x4CE0, symBinAddr: 0x100007DB8, symSize: 0x14 }
  - { offsetInCU: 0x1A16A, offset: 0x1A16A, size: 0x8, addend: 0x0, symName: __ZNSt3__19allocatorINS_11__tree_nodeINS_12__value_typeIiiEEPvEEE8allocateB7v160006Em, symObjAddr: 0x4CF4, symBinAddr: 0x100007DCC, symSize: 0x5C }
  - { offsetInCU: 0x1A1A9, offset: 0x1A1A9, size: 0x8, addend: 0x0, symName: __ZNSt3__116allocator_traitsINS_9allocatorINS_11__tree_nodeINS_12__value_typeIiiEEPvEEEEE8max_sizeB7v160006IS7_vEEmRKS7_, symObjAddr: 0x4D50, symBinAddr: 0x100007E28, symSize: 0x24 }
  - { offsetInCU: 0x1A1D7, offset: 0x1A1D7, size: 0x8, addend: 0x0, symName: __ZNKSt3__19allocatorINS_11__tree_nodeINS_12__value_typeIiiEEPvEEE8max_sizeB7v160006Ev, symObjAddr: 0x4DD0, symBinAddr: 0x100007EA8, symSize: 0x18 }
  - { offsetInCU: 0x1A1FD, offset: 0x1A1FD, size: 0x8, addend: 0x0, symName: __ZNSt3__122__tree_node_destructorINS_9allocatorINS_11__tree_nodeINS_12__value_typeIiiEEPvEEEEEC2B7v160006ERS7_b, symObjAddr: 0x4E0C, symBinAddr: 0x100007EE4, symSize: 0x38 }
  - { offsetInCU: 0x1A245, offset: 0x1A245, size: 0x8, addend: 0x0, symName: __ZNSt3__110unique_ptrINS_11__tree_nodeINS_12__value_typeIiiEEPvEENS_22__tree_node_destructorINS_9allocatorIS5_EEEEEC2B7v160006ILb1EvEEPS5_NS_16__dependent_typeINS_27__unique_ptr_deleter_sfinaeIS9_EEXT_EE20__good_rval_ref_typeE, symObjAddr: 0x4E44, symBinAddr: 0x100007F1C, symSize: 0x48 }
  - { offsetInCU: 0x1A296, offset: 0x1A296, size: 0x8, addend: 0x0, symName: __ZNSt3__117__compressed_pairIPNS_11__tree_nodeINS_12__value_typeIiiEEPvEENS_22__tree_node_destructorINS_9allocatorIS5_EEEEEC1B7v160006IRS6_SA_EEOT_OT0_, symObjAddr: 0x4E8C, symBinAddr: 0x100007F64, symSize: 0x3C }
  - { offsetInCU: 0x1A2EE, offset: 0x1A2EE, size: 0x8, addend: 0x0, symName: __ZNSt3__117__compressed_pairIPNS_11__tree_nodeINS_12__value_typeIiiEEPvEENS_22__tree_node_destructorINS_9allocatorIS5_EEEEEC2B7v160006IRS6_SA_EEOT_OT0_, symObjAddr: 0x4EC8, symBinAddr: 0x100007FA0, symSize: 0x48 }
  - { offsetInCU: 0x1A346, offset: 0x1A346, size: 0x8, addend: 0x0, symName: __ZNSt3__122__compressed_pair_elemIPNS_11__tree_nodeINS_12__value_typeIiiEEPvEELi0ELb0EEC2B7v160006IRS6_vEEOT_, symObjAddr: 0x4F10, symBinAddr: 0x100007FE8, symSize: 0x24 }
  - { offsetInCU: 0x1A388, offset: 0x1A388, size: 0x8, addend: 0x0, symName: __ZNSt3__122__compressed_pair_elemINS_22__tree_node_destructorINS_9allocatorINS_11__tree_nodeINS_12__value_typeIiiEEPvEEEEEELi1ELb0EEC2B7v160006IS9_vEEOT_, symObjAddr: 0x4F34, symBinAddr: 0x10000800C, symSize: 0x24 }
  - { offsetInCU: 0x1A3CA, offset: 0x1A3CA, size: 0x8, addend: 0x0, symName: __ZNSt3__19allocatorINS_11__tree_nodeINS_12__value_typeIiiEEPvEEE9constructB7v160006INS_4pairIKiiEEJRKSA_EEEvPT_DpOT0_, symObjAddr: 0x4F58, symBinAddr: 0x100008030, symSize: 0x28 }
  - { offsetInCU: 0x1A420, offset: 0x1A420, size: 0x8, addend: 0x0, symName: __ZNSt3__112__value_typeIiiE11__get_valueB7v160006Ev, symObjAddr: 0x4F80, symBinAddr: 0x100008058, symSize: 0x14 }
  - { offsetInCU: 0x1A446, offset: 0x1A446, size: 0x8, addend: 0x0, symName: __ZNKSt3__117__compressed_pairIPNS_11__tree_nodeINS_12__value_typeIiiEEPvEENS_22__tree_node_destructorINS_9allocatorIS5_EEEEE5firstB7v160006Ev, symObjAddr: 0x4F94, symBinAddr: 0x10000806C, symSize: 0x24 }
  - { offsetInCU: 0x1A46C, offset: 0x1A46C, size: 0x8, addend: 0x0, symName: __ZNKSt3__122__compressed_pair_elemIPNS_11__tree_nodeINS_12__value_typeIiiEEPvEELi0ELb0EE5__getB7v160006Ev, symObjAddr: 0x4FB8, symBinAddr: 0x100008090, symSize: 0x14 }
  - { offsetInCU: 0x1A492, offset: 0x1A492, size: 0x8, addend: 0x0, symName: __ZNSt3__117__compressed_pairIPNS_11__tree_nodeINS_12__value_typeIiiEEPvEENS_22__tree_node_destructorINS_9allocatorIS5_EEEEE6secondB7v160006Ev, symObjAddr: 0x4FCC, symBinAddr: 0x1000080A4, symSize: 0x28 }
  - { offsetInCU: 0x1A4B8, offset: 0x1A4B8, size: 0x8, addend: 0x0, symName: __ZNSt3__122__compressed_pair_elemINS_22__tree_node_destructorINS_9allocatorINS_11__tree_nodeINS_12__value_typeIiiEEPvEEEEEELi1ELb0EE5__getB7v160006Ev, symObjAddr: 0x4FF4, symBinAddr: 0x1000080CC, symSize: 0x14 }
  - { offsetInCU: 0x1A4DE, offset: 0x1A4DE, size: 0x8, addend: 0x0, symName: __ZNSt3__16__treeINS_12__value_typeIiiEENS_19__map_value_compareIiS2_NS_4lessIiEELb1EEENS_9allocatorIS2_EEE4sizeB7v160006Ev, symObjAddr: 0x5284, symBinAddr: 0x10000835C, symSize: 0x28 }
  - { offsetInCU: 0x1A504, offset: 0x1A504, size: 0x8, addend: 0x0, symName: __ZNSt3__116__tree_node_baseIPvE12__set_parentB7v160006EPS2_, symObjAddr: 0x5450, symBinAddr: 0x100008528, symSize: 0x20 }
  - { offsetInCU: 0x1A539, offset: 0x1A539, size: 0x8, addend: 0x0, symName: __ZNSt3__117__compressed_pairImNS_19__map_value_compareIiNS_12__value_typeIiiEENS_4lessIiEELb1EEEE5firstB7v160006Ev, symObjAddr: 0x5470, symBinAddr: 0x100008548, symSize: 0x24 }
  - { offsetInCU: 0x1A55F, offset: 0x1A55F, size: 0x8, addend: 0x0, symName: __ZNSt3__122__compressed_pair_elemImLi0ELb0EE5__getB7v160006Ev, symObjAddr: 0x5494, symBinAddr: 0x10000856C, symSize: 0x14 }
  - { offsetInCU: 0x1A585, offset: 0x1A585, size: 0x8, addend: 0x0, symName: __ZNSt3__117__compressed_pairIPNS_11__tree_nodeINS_12__value_typeIiiEEPvEENS_22__tree_node_destructorINS_9allocatorIS5_EEEEE5firstB7v160006Ev, symObjAddr: 0x54A8, symBinAddr: 0x100008580, symSize: 0x24 }
  - { offsetInCU: 0x1A5AB, offset: 0x1A5AB, size: 0x8, addend: 0x0, symName: __ZNSt3__122__compressed_pair_elemIPNS_11__tree_nodeINS_12__value_typeIiiEEPvEELi0ELb0EE5__getB7v160006Ev, symObjAddr: 0x54CC, symBinAddr: 0x1000085A4, symSize: 0x14 }
  - { offsetInCU: 0x1A5D1, offset: 0x1A5D1, size: 0x8, addend: 0x0, symName: __ZNSt3__110unique_ptrINS_11__tree_nodeINS_12__value_typeIiiEEPvEENS_22__tree_node_destructorINS_9allocatorIS5_EEEEED2B7v160006Ev, symObjAddr: 0x54E0, symBinAddr: 0x1000085B8, symSize: 0x30 }
  - { offsetInCU: 0x1A5FB, offset: 0x1A5FB, size: 0x8, addend: 0x0, symName: __ZNSt3__110unique_ptrINS_11__tree_nodeINS_12__value_typeIiiEEPvEENS_22__tree_node_destructorINS_9allocatorIS5_EEEEE5resetB7v160006EPS5_, symObjAddr: 0x5510, symBinAddr: 0x1000085E8, symSize: 0x78 }
  - { offsetInCU: 0x1A63F, offset: 0x1A63F, size: 0x8, addend: 0x0, symName: __ZNSt3__122__tree_node_destructorINS_9allocatorINS_11__tree_nodeINS_12__value_typeIiiEEPvEEEEEclB7v160006EPS6_, symObjAddr: 0x5588, symBinAddr: 0x100008660, symSize: 0x98 }
  - { offsetInCU: 0x1A674, offset: 0x1A674, size: 0x8, addend: 0x0, symName: __ZNSt3__116allocator_traitsINS_9allocatorINS_11__tree_nodeINS_12__value_typeIiiEEPvEEEEE7destroyB7v160006INS_4pairIKiiEEvvEEvRS7_PT_, symObjAddr: 0x5620, symBinAddr: 0x1000086F8, symSize: 0x14 }
  - { offsetInCU: 0x1A6AF, offset: 0x1A6AF, size: 0x8, addend: 0x0, symName: __ZNSt3__116allocator_traitsINS_9allocatorINS_11__tree_nodeINS_12__value_typeIiiEEPvEEEEE10deallocateB7v160006ERS7_PS6_m, symObjAddr: 0x5634, symBinAddr: 0x10000870C, symSize: 0x34 }
  - { offsetInCU: 0x1A6F1, offset: 0x1A6F1, size: 0x8, addend: 0x0, symName: __ZNSt3__19allocatorINS_11__tree_nodeINS_12__value_typeIiiEEPvEEE10deallocateB7v160006EPS5_m, symObjAddr: 0x5668, symBinAddr: 0x100008740, symSize: 0x44 }
  - { offsetInCU: 0x1A733, offset: 0x1A733, size: 0x8, addend: 0x0, symName: __ZNSt3__115__tree_iteratorINS_12__value_typeIiiEEPNS_11__tree_nodeIS2_PvEElEC2B7v160006ES6_, symObjAddr: 0x5728, symBinAddr: 0x100008800, symSize: 0x20 }
  - { offsetInCU: 0x1A76C, offset: 0x1A76C, size: 0x8, addend: 0x0, symName: __ZNSt3__14pairINS_15__tree_iteratorINS_12__value_typeIiiEEPNS_11__tree_nodeIS3_PvEElEEbEC2B7v160006IS8_RbLS5_0EEEOT_OT0_, symObjAddr: 0x5748, symBinAddr: 0x100008820, symSize: 0x38 }
  - { offsetInCU: 0x1A7CA, offset: 0x1A7CA, size: 0x8, addend: 0x0, symName: __ZNSt3__114__map_iteratorINS_15__tree_iteratorINS_12__value_typeIiiEEPNS_11__tree_nodeIS3_PvEElEEEC2B7v160006ES8_, symObjAddr: 0x5780, symBinAddr: 0x100008858, symSize: 0x20 }
  - { offsetInCU: 0x1A803, offset: 0x1A803, size: 0x8, addend: 0x0, symName: __ZNSt3__120__map_const_iteratorINS_21__tree_const_iteratorINS_12__value_typeIiiEEPNS_11__tree_nodeIS3_PvEElEEEC2B7v160006ES8_, symObjAddr: 0x57A0, symBinAddr: 0x100008878, symSize: 0x20 }
  - { offsetInCU: 0x1A83C, offset: 0x1A83C, size: 0x8, addend: 0x0, symName: __ZNSt3__16__treeINS_12__value_typeIiiEENS_19__map_value_compareIiS2_NS_4lessIiEELb1EEENS_9allocatorIS2_EEED2Ev, symObjAddr: 0x57C0, symBinAddr: 0x100008898, symSize: 0x38 }
  - { offsetInCU: 0x1A868, offset: 0x1A868, size: 0x8, addend: 0x0, symName: __ZNSt3__16__treeINS_12__value_typeIiiEENS_19__map_value_compareIiS2_NS_4lessIiEELb1EEENS_9allocatorIS2_EEE7destroyEPNS_11__tree_nodeIS2_PvEE, symObjAddr: 0x57F8, symBinAddr: 0x1000088D0, symSize: 0xA8 }
  - { offsetInCU: 0x1A8B4, offset: 0x1A8B4, size: 0x8, addend: 0x0, symName: __ZNSt3__14pairIKNS_12basic_stringIcNS_11char_traitsIcEENS_9allocatorIcEEEENS_3mapIiiNS_4lessIiEENS4_INS0_IKiiEEEEEEEC2B7v160006ILb1ELPv0EEERS7_RKSE_, symObjAddr: 0x58A0, symBinAddr: 0x100008978, symSize: 0x70 }
  - { offsetInCU: 0x1A90A, offset: 0x1A90A, size: 0x8, addend: 0x0, symName: __ZNSt3__13mapIiiNS_4lessIiEENS_9allocatorINS_4pairIKiiEEEEEC1B7v160006ERKS8_, symObjAddr: 0x5910, symBinAddr: 0x1000089E8, symSize: 0x34 }
  - { offsetInCU: 0x1A943, offset: 0x1A943, size: 0x8, addend: 0x0, symName: __ZNSt3__13mapIiiNS_4lessIiEENS_9allocatorINS_4pairIKiiEEEEEC2B7v160006ERKS8_, symObjAddr: 0x5944, symBinAddr: 0x100008A1C, symSize: 0x88 }
  - { offsetInCU: 0x1A97C, offset: 0x1A97C, size: 0x8, addend: 0x0, symName: __ZNSt3__16__treeINS_12__value_typeIiiEENS_19__map_value_compareIiS2_NS_4lessIiEELb1EEENS_9allocatorIS2_EEEC1ERKS9_, symObjAddr: 0x59CC, symBinAddr: 0x100008AA4, symSize: 0x34 }
  - { offsetInCU: 0x1A9B7, offset: 0x1A9B7, size: 0x8, addend: 0x0, symName: __ZNSt3__13mapIiiNS_4lessIiEENS_9allocatorINS_4pairIKiiEEEEE6insertB7v160006INS_20__map_const_iteratorINS_21__tree_const_iteratorINS_12__value_typeIiiEEPNS_11__tree_nodeISD_PvEElEEEEEEvT_SK_, symObjAddr: 0x5A00, symBinAddr: 0x100008AD8, symSize: 0x8C }
  - { offsetInCU: 0x1AA21, offset: 0x1AA21, size: 0x8, addend: 0x0, symName: __ZNKSt3__13mapIiiNS_4lessIiEENS_9allocatorINS_4pairIKiiEEEEE5beginB7v160006Ev, symObjAddr: 0x5A8C, symBinAddr: 0x100008B64, symSize: 0x38 }
  - { offsetInCU: 0x1AA47, offset: 0x1AA47, size: 0x8, addend: 0x0, symName: __ZNSt3__16__treeINS_12__value_typeIiiEENS_19__map_value_compareIiS2_NS_4lessIiEELb1EEENS_9allocatorIS2_EEEC2ERKS9_, symObjAddr: 0x5AC4, symBinAddr: 0x100008B9C, symSize: 0x9C }
  - { offsetInCU: 0x1AA82, offset: 0x1AA82, size: 0x8, addend: 0x0, symName: __ZNSt3__116allocator_traitsINS_9allocatorINS_11__tree_nodeINS_12__value_typeIiiEEPvEEEEE37select_on_container_copy_constructionB7v160006IS7_vvEES7_RKS7_, symObjAddr: 0x5B60, symBinAddr: 0x100008C38, symSize: 0x10 }
  - { offsetInCU: 0x1AAB1, offset: 0x1AAB1, size: 0x8, addend: 0x0, symName: __ZNKSt3__16__treeINS_12__value_typeIiiEENS_19__map_value_compareIiS2_NS_4lessIiEELb1EEENS_9allocatorIS2_EEE12__node_allocB7v160006Ev, symObjAddr: 0x5B70, symBinAddr: 0x100008C48, symSize: 0x28 }
  - { offsetInCU: 0x1AAE3, offset: 0x1AAE3, size: 0x8, addend: 0x0, symName: __ZNSt3__117__compressed_pairINS_15__tree_end_nodeIPNS_16__tree_node_baseIPvEEEENS_9allocatorINS_11__tree_nodeINS_12__value_typeIiiEES3_EEEEEC1B7v160006INS_18__default_init_tagESC_EEOT_OT0_, symObjAddr: 0x5B98, symBinAddr: 0x100008C70, symSize: 0x3C }
  - { offsetInCU: 0x1AB3B, offset: 0x1AB3B, size: 0x8, addend: 0x0, symName: __ZNKSt3__16__treeINS_12__value_typeIiiEENS_19__map_value_compareIiS2_NS_4lessIiEELb1EEENS_9allocatorIS2_EEE10value_compB7v160006Ev, symObjAddr: 0x5BD4, symBinAddr: 0x100008CAC, symSize: 0x28 }
  - { offsetInCU: 0x1AB61, offset: 0x1AB61, size: 0x8, addend: 0x0, symName: __ZNKSt3__117__compressed_pairINS_15__tree_end_nodeIPNS_16__tree_node_baseIPvEEEENS_9allocatorINS_11__tree_nodeINS_12__value_typeIiiEES3_EEEEE6secondB7v160006Ev, symObjAddr: 0x5BFC, symBinAddr: 0x100008CD4, symSize: 0x24 }
  - { offsetInCU: 0x1AB87, offset: 0x1AB87, size: 0x8, addend: 0x0, symName: __ZNKSt3__122__compressed_pair_elemINS_9allocatorINS_11__tree_nodeINS_12__value_typeIiiEEPvEEEELi1ELb1EE5__getB7v160006Ev, symObjAddr: 0x5C20, symBinAddr: 0x100008CF8, symSize: 0x14 }
  - { offsetInCU: 0x1ABAD, offset: 0x1ABAD, size: 0x8, addend: 0x0, symName: __ZNSt3__117__compressed_pairINS_15__tree_end_nodeIPNS_16__tree_node_baseIPvEEEENS_9allocatorINS_11__tree_nodeINS_12__value_typeIiiEES3_EEEEEC2B7v160006INS_18__default_init_tagESC_EEOT_OT0_, symObjAddr: 0x5C34, symBinAddr: 0x100008D0C, symSize: 0x40 }
  - { offsetInCU: 0x1AC05, offset: 0x1AC05, size: 0x8, addend: 0x0, symName: __ZNSt3__122__compressed_pair_elemINS_15__tree_end_nodeIPNS_16__tree_node_baseIPvEEEELi0ELb0EEC2B7v160006ENS_18__default_init_tagE, symObjAddr: 0x5C74, symBinAddr: 0x100008D4C, symSize: 0x2C }
  - { offsetInCU: 0x1AC39, offset: 0x1AC39, size: 0x8, addend: 0x0, symName: __ZNSt3__122__compressed_pair_elemINS_9allocatorINS_11__tree_nodeINS_12__value_typeIiiEEPvEEEELi1ELb1EEC2B7v160006IS7_vEEOT_, symObjAddr: 0x5CA0, symBinAddr: 0x100008D78, symSize: 0x18 }
  - { offsetInCU: 0x1AC7B, offset: 0x1AC7B, size: 0x8, addend: 0x0, symName: __ZNKSt3__117__compressed_pairImNS_19__map_value_compareIiNS_12__value_typeIiiEENS_4lessIiEELb1EEEE6secondB7v160006Ev, symObjAddr: 0x5CB8, symBinAddr: 0x100008D90, symSize: 0x24 }
  - { offsetInCU: 0x1ACA1, offset: 0x1ACA1, size: 0x8, addend: 0x0, symName: __ZNKSt3__122__compressed_pair_elemINS_19__map_value_compareIiNS_12__value_typeIiiEENS_4lessIiEELb1EEELi1ELb1EE5__getB7v160006Ev, symObjAddr: 0x5CDC, symBinAddr: 0x100008DB4, symSize: 0x14 }
  - { offsetInCU: 0x1ACC7, offset: 0x1ACC7, size: 0x8, addend: 0x0, symName: __ZNKSt3__120__map_const_iteratorINS_21__tree_const_iteratorINS_12__value_typeIiiEEPNS_11__tree_nodeIS3_PvEElEEEdeB7v160006Ev, symObjAddr: 0x5D20, symBinAddr: 0x100008DF8, symSize: 0x28 }
  - { offsetInCU: 0x1ACED, offset: 0x1ACED, size: 0x8, addend: 0x0, symName: __ZNSt3__120__map_const_iteratorINS_21__tree_const_iteratorINS_12__value_typeIiiEEPNS_11__tree_nodeIS3_PvEElEEEppB7v160006Ev, symObjAddr: 0x5D48, symBinAddr: 0x100008E20, symSize: 0x2C }
  - { offsetInCU: 0x1AD13, offset: 0x1AD13, size: 0x8, addend: 0x0, symName: __ZNKSt3__121__tree_const_iteratorINS_12__value_typeIiiEEPNS_11__tree_nodeIS2_PvEElEptB7v160006Ev, symObjAddr: 0x5DA8, symBinAddr: 0x100008E80, symSize: 0x2C }
  - { offsetInCU: 0x1AD39, offset: 0x1AD39, size: 0x8, addend: 0x0, symName: __ZNSt3__114pointer_traitsIPKNS_12__value_typeIiiEEE10pointer_toB7v160006ERS3_, symObjAddr: 0x5DD4, symBinAddr: 0x100008EAC, symSize: 0x14 }
  - { offsetInCU: 0x1AD5C, offset: 0x1AD5C, size: 0x8, addend: 0x0, symName: __ZNKSt3__16__treeINS_12__value_typeIiiEENS_19__map_value_compareIiS2_NS_4lessIiEELb1EEENS_9allocatorIS2_EEE5beginB7v160006Ev, symObjAddr: 0x5DE8, symBinAddr: 0x100008EC0, symSize: 0x34 }
  - { offsetInCU: 0x1AD82, offset: 0x1AD82, size: 0x8, addend: 0x0, symName: __ZNKSt3__16__treeINS_12__value_typeIiiEENS_19__map_value_compareIiS2_NS_4lessIiEELb1EEENS_9allocatorIS2_EEE12__begin_nodeB7v160006Ev, symObjAddr: 0x5E1C, symBinAddr: 0x100008EF4, symSize: 0x14 }
  - { offsetInCU: 0x1ADA8, offset: 0x1ADA8, size: 0x8, addend: 0x0, symName: __ZNSt3__13mapINS_12basic_stringIcNS_11char_traitsIcEENS_9allocatorIcEEEENS0_IiiNS_4lessIiEENS4_INS_4pairIKiiEEEEEENS7_IS6_EENS4_INS9_IKS6_SD_EEEEEC2B7v160006ESt16initializer_listISG_ERKSE_, symObjAddr: 0x5E30, symBinAddr: 0x100008F08, symSize: 0xA4 }
  - { offsetInCU: 0x1ADF0, offset: 0x1ADF0, size: 0x8, addend: 0x0, symName: __ZNSt3__119__map_value_compareINS_12basic_stringIcNS_11char_traitsIcEENS_9allocatorIcEEEENS_12__value_typeIS6_NS_3mapIiiNS_4lessIiEENS4_INS_4pairIKiiEEEEEEEENS9_IS6_EELb1EEC1B7v160006ESH_, symObjAddr: 0x5ED4, symBinAddr: 0x100008FAC, symSize: 0x2C }
  - { offsetInCU: 0x1AE29, offset: 0x1AE29, size: 0x8, addend: 0x0, symName: __ZNSt3__16__treeINS_12__value_typeINS_12basic_stringIcNS_11char_traitsIcEENS_9allocatorIcEEEENS_3mapIiiNS_4lessIiEENS5_INS_4pairIKiiEEEEEEEENS_19__map_value_compareIS7_SG_NS9_IS7_EELb1EEENS5_ISG_EEEC1ERKSJ_, symObjAddr: 0x5F00, symBinAddr: 0x100008FD8, symSize: 0x34 }
  - { offsetInCU: 0x1AE64, offset: 0x1AE64, size: 0x8, addend: 0x0, symName: __ZNSt3__13mapINS_12basic_stringIcNS_11char_traitsIcEENS_9allocatorIcEEEENS0_IiiNS_4lessIiEENS4_INS_4pairIKiiEEEEEENS7_IS6_EENS4_INS9_IKS6_SD_EEEEE6insertB7v160006IPKSG_EEvT_SM_, symObjAddr: 0x5F34, symBinAddr: 0x10000900C, symSize: 0x8C }
  - { offsetInCU: 0x1AECE, offset: 0x1AECE, size: 0x8, addend: 0x0, symName: __ZNKSt16initializer_listINSt3__14pairIKNS0_12basic_stringIcNS0_11char_traitsIcEENS0_9allocatorIcEEEENS0_3mapIiiNS0_4lessIiEENS5_INS1_IKiiEEEEEEEEE5beginB7v160006Ev, symObjAddr: 0x5FC0, symBinAddr: 0x100009098, symSize: 0x18 }
  - { offsetInCU: 0x1AEF4, offset: 0x1AEF4, size: 0x8, addend: 0x0, symName: __ZNKSt16initializer_listINSt3__14pairIKNS0_12basic_stringIcNS0_11char_traitsIcEENS0_9allocatorIcEEEENS0_3mapIiiNS0_4lessIiEENS5_INS1_IKiiEEEEEEEEE3endB7v160006Ev, symObjAddr: 0x5FD8, symBinAddr: 0x1000090B0, symSize: 0x28 }
  - { offsetInCU: 0x1AF1A, offset: 0x1AF1A, size: 0x8, addend: 0x0, symName: __ZNSt3__16__treeINS_12__value_typeINS_12basic_stringIcNS_11char_traitsIcEENS_9allocatorIcEEEENS_3mapIiiNS_4lessIiEENS5_INS_4pairIKiiEEEEEEEENS_19__map_value_compareIS7_SG_NS9_IS7_EELb1EEENS5_ISG_EEED1Ev, symObjAddr: 0x6000, symBinAddr: 0x1000090D8, symSize: 0x2C }
  - { offsetInCU: 0x1AF46, offset: 0x1AF46, size: 0x8, addend: 0x0, symName: __ZNSt3__119__map_value_compareINS_12basic_stringIcNS_11char_traitsIcEENS_9allocatorIcEEEENS_12__value_typeIS6_NS_3mapIiiNS_4lessIiEENS4_INS_4pairIKiiEEEEEEEENS9_IS6_EELb1EEC2B7v160006ESH_, symObjAddr: 0x602C, symBinAddr: 0x100009104, symSize: 0x14 }
  - { offsetInCU: 0x1AF7F, offset: 0x1AF7F, size: 0x8, addend: 0x0, symName: __ZNSt3__16__treeINS_12__value_typeINS_12basic_stringIcNS_11char_traitsIcEENS_9allocatorIcEEEENS_3mapIiiNS_4lessIiEENS5_INS_4pairIKiiEEEEEEEENS_19__map_value_compareIS7_SG_NS9_IS7_EELb1EEENS5_ISG_EEEC2ERKSJ_, symObjAddr: 0x6040, symBinAddr: 0x100009118, symSize: 0x7C }
  - { offsetInCU: 0x1AFBA, offset: 0x1AFBA, size: 0x8, addend: 0x0, symName: __ZNSt3__117__compressed_pairINS_15__tree_end_nodeIPNS_16__tree_node_baseIPvEEEENS_9allocatorINS_11__tree_nodeINS_12__value_typeINS_12basic_stringIcNS_11char_traitsIcEENS7_IcEEEENS_3mapIiiNS_4lessIiEENS7_INS_4pairIKiiEEEEEEEES3_EEEEEC1B7v160006ILb1EvEEv, symObjAddr: 0x60BC, symBinAddr: 0x100009194, symSize: 0x2C }
  - { offsetInCU: 0x1AFEF, offset: 0x1AFEF, size: 0x8, addend: 0x0, symName: __ZNSt3__117__compressed_pairImNS_19__map_value_compareINS_12basic_stringIcNS_11char_traitsIcEENS_9allocatorIcEEEENS_12__value_typeIS7_NS_3mapIiiNS_4lessIiEENS5_INS_4pairIKiiEEEEEEEENSA_IS7_EELb1EEEEC1B7v160006IiRKSJ_EEOT_OT0_, symObjAddr: 0x60E8, symBinAddr: 0x1000091C0, symSize: 0x3C }
  - { offsetInCU: 0x1B047, offset: 0x1B047, size: 0x8, addend: 0x0, symName: __ZNSt3__16__treeINS_12__value_typeINS_12basic_stringIcNS_11char_traitsIcEENS_9allocatorIcEEEENS_3mapIiiNS_4lessIiEENS5_INS_4pairIKiiEEEEEEEENS_19__map_value_compareIS7_SG_NS9_IS7_EELb1EEENS5_ISG_EEE10__end_nodeB7v160006Ev, symObjAddr: 0x6124, symBinAddr: 0x1000091FC, symSize: 0x2C }
  - { offsetInCU: 0x1B06D, offset: 0x1B06D, size: 0x8, addend: 0x0, symName: __ZNSt3__16__treeINS_12__value_typeINS_12basic_stringIcNS_11char_traitsIcEENS_9allocatorIcEEEENS_3mapIiiNS_4lessIiEENS5_INS_4pairIKiiEEEEEEEENS_19__map_value_compareIS7_SG_NS9_IS7_EELb1EEENS5_ISG_EEE12__begin_nodeB7v160006Ev, symObjAddr: 0x6150, symBinAddr: 0x100009228, symSize: 0x14 }
  - { offsetInCU: 0x1B093, offset: 0x1B093, size: 0x8, addend: 0x0, symName: __ZNSt3__117__compressed_pairINS_15__tree_end_nodeIPNS_16__tree_node_baseIPvEEEENS_9allocatorINS_11__tree_nodeINS_12__value_typeINS_12basic_stringIcNS_11char_traitsIcEENS7_IcEEEENS_3mapIiiNS_4lessIiEENS7_INS_4pairIKiiEEEEEEEES3_EEEEEC2B7v160006ILb1EvEEv, symObjAddr: 0x6164, symBinAddr: 0x10000923C, symSize: 0x34 }
  - { offsetInCU: 0x1B0C8, offset: 0x1B0C8, size: 0x8, addend: 0x0, symName: __ZNSt3__122__compressed_pair_elemINS_9allocatorINS_11__tree_nodeINS_12__value_typeINS_12basic_stringIcNS_11char_traitsIcEENS1_IcEEEENS_3mapIiiNS_4lessIiEENS1_INS_4pairIKiiEEEEEEEEPvEEEELi1ELb1EEC2B7v160006ENS_16__value_init_tagE, symObjAddr: 0x6198, symBinAddr: 0x100009270, symSize: 0x2C }
  - { offsetInCU: 0x1B0FC, offset: 0x1B0FC, size: 0x8, addend: 0x0, symName: __ZNSt3__19allocatorINS_11__tree_nodeINS_12__value_typeINS_12basic_stringIcNS_11char_traitsIcEENS0_IcEEEENS_3mapIiiNS_4lessIiEENS0_INS_4pairIKiiEEEEEEEEPvEEEC2B7v160006Ev, symObjAddr: 0x61C4, symBinAddr: 0x10000929C, symSize: 0x2C }
  - { offsetInCU: 0x1B126, offset: 0x1B126, size: 0x8, addend: 0x0, symName: __ZNSt3__116__non_trivial_ifILb1ENS_9allocatorINS_11__tree_nodeINS_12__value_typeINS_12basic_stringIcNS_11char_traitsIcEENS1_IcEEEENS_3mapIiiNS_4lessIiEENS1_INS_4pairIKiiEEEEEEEEPvEEEEEC2B7v160006Ev, symObjAddr: 0x61F0, symBinAddr: 0x1000092C8, symSize: 0x14 }
  - { offsetInCU: 0x1B150, offset: 0x1B150, size: 0x8, addend: 0x0, symName: __ZNSt3__117__compressed_pairImNS_19__map_value_compareINS_12basic_stringIcNS_11char_traitsIcEENS_9allocatorIcEEEENS_12__value_typeIS7_NS_3mapIiiNS_4lessIiEENS5_INS_4pairIKiiEEEEEEEENSA_IS7_EELb1EEEEC2B7v160006IiRKSJ_EEOT_OT0_, symObjAddr: 0x6204, symBinAddr: 0x1000092DC, symSize: 0x44 }
  - { offsetInCU: 0x1B1A8, offset: 0x1B1A8, size: 0x8, addend: 0x0, symName: __ZNSt3__122__compressed_pair_elemINS_19__map_value_compareINS_12basic_stringIcNS_11char_traitsIcEENS_9allocatorIcEEEENS_12__value_typeIS7_NS_3mapIiiNS_4lessIiEENS5_INS_4pairIKiiEEEEEEEENSA_IS7_EELb1EEELi1ELb1EEC2B7v160006IRKSJ_vEEOT_, symObjAddr: 0x6248, symBinAddr: 0x100009320, symSize: 0x18 }
  - { offsetInCU: 0x1B1EA, offset: 0x1B1EA, size: 0x8, addend: 0x0, symName: __ZNSt3__117__compressed_pairINS_15__tree_end_nodeIPNS_16__tree_node_baseIPvEEEENS_9allocatorINS_11__tree_nodeINS_12__value_typeINS_12basic_stringIcNS_11char_traitsIcEENS7_IcEEEENS_3mapIiiNS_4lessIiEENS7_INS_4pairIKiiEEEEEEEES3_EEEEE5firstB7v160006Ev, symObjAddr: 0x6260, symBinAddr: 0x100009338, symSize: 0x24 }
  - { offsetInCU: 0x1B210, offset: 0x1B210, size: 0x8, addend: 0x0, symName: __ZNKSt3__13mapINS_12basic_stringIcNS_11char_traitsIcEENS_9allocatorIcEEEENS0_IiiNS_4lessIiEENS4_INS_4pairIKiiEEEEEENS7_IS6_EENS4_INS9_IKS6_SD_EEEEE4cendB7v160006Ev, symObjAddr: 0x6284, symBinAddr: 0x10000935C, symSize: 0x2C }
  - { offsetInCU: 0x1B236, offset: 0x1B236, size: 0x8, addend: 0x0, symName: __ZNSt3__13mapINS_12basic_stringIcNS_11char_traitsIcEENS_9allocatorIcEEEENS0_IiiNS_4lessIiEENS4_INS_4pairIKiiEEEEEENS7_IS6_EENS4_INS9_IKS6_SD_EEEEE6insertB7v160006ENS_20__map_const_iteratorINS_21__tree_const_iteratorINS_12__value_typeIS6_SD_EEPNS_11__tree_nodeISM_PvEElEEEERKSG_, symObjAddr: 0x62B0, symBinAddr: 0x100009388, symSize: 0x50 }
  - { offsetInCU: 0x1B27A, offset: 0x1B27A, size: 0x8, addend: 0x0, symName: __ZNSt3__120__map_const_iteratorINS_21__tree_const_iteratorINS_12__value_typeINS_12basic_stringIcNS_11char_traitsIcEENS_9allocatorIcEEEENS_3mapIiiNS_4lessIiEENS6_INS_4pairIKiiEEEEEEEEPNS_11__tree_nodeISH_PvEElEEEC1B7v160006ESM_, symObjAddr: 0x6300, symBinAddr: 0x1000093D8, symSize: 0x34 }
  - { offsetInCU: 0x1B2B3, offset: 0x1B2B3, size: 0x8, addend: 0x0, symName: __ZNKSt3__13mapINS_12basic_stringIcNS_11char_traitsIcEENS_9allocatorIcEEEENS0_IiiNS_4lessIiEENS4_INS_4pairIKiiEEEEEENS7_IS6_EENS4_INS9_IKS6_SD_EEEEE3endB7v160006Ev, symObjAddr: 0x6334, symBinAddr: 0x10000940C, symSize: 0x38 }
  - { offsetInCU: 0x1B2D9, offset: 0x1B2D9, size: 0x8, addend: 0x0, symName: __ZNKSt3__16__treeINS_12__value_typeINS_12basic_stringIcNS_11char_traitsIcEENS_9allocatorIcEEEENS_3mapIiiNS_4lessIiEENS5_INS_4pairIKiiEEEEEEEENS_19__map_value_compareIS7_SG_NS9_IS7_EELb1EEENS5_ISG_EEE3endB7v160006Ev, symObjAddr: 0x636C, symBinAddr: 0x100009444, symSize: 0x34 }
  - { offsetInCU: 0x1B2FF, offset: 0x1B2FF, size: 0x8, addend: 0x0, symName: __ZNKSt3__16__treeINS_12__value_typeINS_12basic_stringIcNS_11char_traitsIcEENS_9allocatorIcEEEENS_3mapIiiNS_4lessIiEENS5_INS_4pairIKiiEEEEEEEENS_19__map_value_compareIS7_SG_NS9_IS7_EELb1EEENS5_ISG_EEE10__end_nodeB7v160006Ev, symObjAddr: 0x63A0, symBinAddr: 0x100009478, symSize: 0x2C }
  - { offsetInCU: 0x1B325, offset: 0x1B325, size: 0x8, addend: 0x0, symName: __ZNSt3__121__tree_const_iteratorINS_12__value_typeINS_12basic_stringIcNS_11char_traitsIcEENS_9allocatorIcEEEENS_3mapIiiNS_4lessIiEENS5_INS_4pairIKiiEEEEEEEEPNS_11__tree_nodeISG_PvEElEC1B7v160006EPNS_15__tree_end_nodeIPNS_16__tree_node_baseISI_EEEE, symObjAddr: 0x63CC, symBinAddr: 0x1000094A4, symSize: 0x34 }
  - { offsetInCU: 0x1B35E, offset: 0x1B35E, size: 0x8, addend: 0x0, symName: __ZNKSt3__117__compressed_pairINS_15__tree_end_nodeIPNS_16__tree_node_baseIPvEEEENS_9allocatorINS_11__tree_nodeINS_12__value_typeINS_12basic_stringIcNS_11char_traitsIcEENS7_IcEEEENS_3mapIiiNS_4lessIiEENS7_INS_4pairIKiiEEEEEEEES3_EEEEE5firstB7v160006Ev, symObjAddr: 0x6400, symBinAddr: 0x1000094D8, symSize: 0x24 }
  - { offsetInCU: 0x1B384, offset: 0x1B384, size: 0x8, addend: 0x0, symName: __ZNSt3__121__tree_const_iteratorINS_12__value_typeINS_12basic_stringIcNS_11char_traitsIcEENS_9allocatorIcEEEENS_3mapIiiNS_4lessIiEENS5_INS_4pairIKiiEEEEEEEEPNS_11__tree_nodeISG_PvEElEC2B7v160006EPNS_15__tree_end_nodeIPNS_16__tree_node_baseISI_EEEE, symObjAddr: 0x6424, symBinAddr: 0x1000094FC, symSize: 0x20 }
  - { offsetInCU: 0x1B3BD, offset: 0x1B3BD, size: 0x8, addend: 0x0, symName: __ZNSt3__16__treeINS_12__value_typeINS_12basic_stringIcNS_11char_traitsIcEENS_9allocatorIcEEEENS_3mapIiiNS_4lessIiEENS5_INS_4pairIKiiEEEEEEEENS_19__map_value_compareIS7_SG_NS9_IS7_EELb1EEENS5_ISG_EEE15__insert_uniqueB7v160006ENS_21__tree_const_iteratorISG_PNS_11__tree_nodeISG_PvEElEERKNSB_IKS7_SF_EE, symObjAddr: 0x6444, symBinAddr: 0x10000951C, symSize: 0x64 }
  - { offsetInCU: 0x1B401, offset: 0x1B401, size: 0x8, addend: 0x0, symName: __ZNSt3__114__map_iteratorINS_15__tree_iteratorINS_12__value_typeINS_12basic_stringIcNS_11char_traitsIcEENS_9allocatorIcEEEENS_3mapIiiNS_4lessIiEENS6_INS_4pairIKiiEEEEEEEEPNS_11__tree_nodeISH_PvEElEEEC1B7v160006ESM_, symObjAddr: 0x64A8, symBinAddr: 0x100009580, symSize: 0x34 }
  - { offsetInCU: 0x1B43A, offset: 0x1B43A, size: 0x8, addend: 0x0, symName: __ZNSt3__16__treeINS_12__value_typeINS_12basic_stringIcNS_11char_traitsIcEENS_9allocatorIcEEEENS_3mapIiiNS_4lessIiEENS5_INS_4pairIKiiEEEEEEEENS_19__map_value_compareIS7_SG_NS9_IS7_EELb1EEENS5_ISG_EEE30__emplace_hint_unique_key_argsIS7_JRKNSB_IKS7_SF_EEEEENSB_INS_15__tree_iteratorISG_PNS_11__tree_nodeISG_PvEElEEbEENS_21__tree_const_iteratorISG_SV_lEERKT_DpOT0_, symObjAddr: 0x64DC, symBinAddr: 0x1000095B4, symSize: 0x104 }
  - { offsetInCU: 0x1B506, offset: 0x1B506, size: 0x8, addend: 0x0, symName: __ZNSt3__122__tree_key_value_typesINS_12__value_typeINS_12basic_stringIcNS_11char_traitsIcEENS_9allocatorIcEEEENS_3mapIiiNS_4lessIiEENS5_INS_4pairIKiiEEEEEEEEE9__get_keyB7v160006IKNSB_IKS7_SF_EEEENS_9enable_ifIXsr17__is_same_uncvrefIT_SK_EE5valueERSJ_E4typeERSN_, symObjAddr: 0x65E0, symBinAddr: 0x1000096B8, symSize: 0x14 }
  - { offsetInCU: 0x1B533, offset: 0x1B533, size: 0x8, addend: 0x0, symName: __ZNSt3__16__treeINS_12__value_typeINS_12basic_stringIcNS_11char_traitsIcEENS_9allocatorIcEEEENS_3mapIiiNS_4lessIiEENS5_INS_4pairIKiiEEEEEEEENS_19__map_value_compareIS7_SG_NS9_IS7_EELb1EEENS5_ISG_EEE12__find_equalIS7_EERPNS_16__tree_node_baseIPvEENS_21__tree_const_iteratorISG_PNS_11__tree_nodeISG_SO_EElEERPNS_15__tree_end_nodeISQ_EESR_RKT_, symObjAddr: 0x65F4, symBinAddr: 0x1000096CC, symSize: 0x304 }
  - { offsetInCU: 0x1B5DC, offset: 0x1B5DC, size: 0x8, addend: 0x0, symName: __ZNSt3__16__treeINS_12__value_typeINS_12basic_stringIcNS_11char_traitsIcEENS_9allocatorIcEEEENS_3mapIiiNS_4lessIiEENS5_INS_4pairIKiiEEEEEEEENS_19__map_value_compareIS7_SG_NS9_IS7_EELb1EEENS5_ISG_EEE16__construct_nodeIJRKNSB_IKS7_SF_EEEEENS_10unique_ptrINS_11__tree_nodeISG_PvEENS_22__tree_node_destructorINS5_ISU_EEEEEEDpOT_, symObjAddr: 0x68F8, symBinAddr: 0x1000099D0, symSize: 0x110 }
  - { offsetInCU: 0x1B63D, offset: 0x1B63D, size: 0x8, addend: 0x0, symName: __ZNSt3__16__treeINS_12__value_typeINS_12basic_stringIcNS_11char_traitsIcEENS_9allocatorIcEEEENS_3mapIiiNS_4lessIiEENS5_INS_4pairIKiiEEEEEEEENS_19__map_value_compareIS7_SG_NS9_IS7_EELb1EEENS5_ISG_EEE16__insert_node_atEPNS_15__tree_end_nodeIPNS_16__tree_node_baseIPvEEEERSQ_SQ_, symObjAddr: 0x6A08, symBinAddr: 0x100009AE0, symSize: 0xCC }
  - { offsetInCU: 0x1B692, offset: 0x1B692, size: 0x8, addend: 0x0, symName: __ZNKSt3__110unique_ptrINS_11__tree_nodeINS_12__value_typeINS_12basic_stringIcNS_11char_traitsIcEENS_9allocatorIcEEEENS_3mapIiiNS_4lessIiEENS6_INS_4pairIKiiEEEEEEEEPvEENS_22__tree_node_destructorINS6_ISJ_EEEEE3getB7v160006Ev, symObjAddr: 0x6AD4, symBinAddr: 0x100009BAC, symSize: 0x28 }
  - { offsetInCU: 0x1B6B8, offset: 0x1B6B8, size: 0x8, addend: 0x0, symName: __ZNSt3__110unique_ptrINS_11__tree_nodeINS_12__value_typeINS_12basic_stringIcNS_11char_traitsIcEENS_9allocatorIcEEEENS_3mapIiiNS_4lessIiEENS6_INS_4pairIKiiEEEEEEEEPvEENS_22__tree_node_destructorINS6_ISJ_EEEEE7releaseB7v160006Ev, symObjAddr: 0x6AFC, symBinAddr: 0x100009BD4, symSize: 0x44 }
  - { offsetInCU: 0x1B6ED, offset: 0x1B6ED, size: 0x8, addend: 0x0, symName: __ZNSt3__110unique_ptrINS_11__tree_nodeINS_12__value_typeINS_12basic_stringIcNS_11char_traitsIcEENS_9allocatorIcEEEENS_3mapIiiNS_4lessIiEENS6_INS_4pairIKiiEEEEEEEEPvEENS_22__tree_node_destructorINS6_ISJ_EEEEED1B7v160006Ev, symObjAddr: 0x6B40, symBinAddr: 0x100009C18, symSize: 0x2C }
  - { offsetInCU: 0x1B717, offset: 0x1B717, size: 0x8, addend: 0x0, symName: __ZNSt3__115__tree_iteratorINS_12__value_typeINS_12basic_stringIcNS_11char_traitsIcEENS_9allocatorIcEEEENS_3mapIiiNS_4lessIiEENS5_INS_4pairIKiiEEEEEEEEPNS_11__tree_nodeISG_PvEElEC1B7v160006ESK_, symObjAddr: 0x6B6C, symBinAddr: 0x100009C44, symSize: 0x34 }
  - { offsetInCU: 0x1B756, offset: 0x1B756, size: 0x8, addend: 0x0, symName: __ZNSt3__14pairINS_15__tree_iteratorINS_12__value_typeINS_12basic_stringIcNS_11char_traitsIcEENS_9allocatorIcEEEENS_3mapIiiNS_4lessIiEENS6_INS0_IKiiEEEEEEEEPNS_11__tree_nodeISG_PvEElEEbEC1B7v160006ISL_RbLSI_0EEEOT_OT0_, symObjAddr: 0x6BA0, symBinAddr: 0x100009C78, symSize: 0x3C }
  - { offsetInCU: 0x1B7B4, offset: 0x1B7B4, size: 0x8, addend: 0x0, symName: __ZNSt3__16__treeINS_12__value_typeINS_12basic_stringIcNS_11char_traitsIcEENS_9allocatorIcEEEENS_3mapIiiNS_4lessIiEENS5_INS_4pairIKiiEEEEEEEENS_19__map_value_compareIS7_SG_NS9_IS7_EELb1EEENS5_ISG_EEE3endB7v160006Ev, symObjAddr: 0x6C0C, symBinAddr: 0x100009CE4, symSize: 0x34 }
  - { offsetInCU: 0x1B7DA, offset: 0x1B7DA, size: 0x8, addend: 0x0, symName: __ZNSt3__121__tree_const_iteratorINS_12__value_typeINS_12basic_stringIcNS_11char_traitsIcEENS_9allocatorIcEEEENS_3mapIiiNS_4lessIiEENS5_INS_4pairIKiiEEEEEEEEPNS_11__tree_nodeISG_PvEElEC1B7v160006ENS_15__tree_iteratorISG_SK_lEE, symObjAddr: 0x6C40, symBinAddr: 0x100009D18, symSize: 0x34 }
  - { offsetInCU: 0x1B813, offset: 0x1B813, size: 0x8, addend: 0x0, symName: __ZNSt3__16__treeINS_12__value_typeINS_12basic_stringIcNS_11char_traitsIcEENS_9allocatorIcEEEENS_3mapIiiNS_4lessIiEENS5_INS_4pairIKiiEEEEEEEENS_19__map_value_compareIS7_SG_NS9_IS7_EELb1EEENS5_ISG_EEE10value_compB7v160006Ev, symObjAddr: 0x6C74, symBinAddr: 0x100009D4C, symSize: 0x28 }
  - { offsetInCU: 0x1B839, offset: 0x1B839, size: 0x8, addend: 0x0, symName: __ZNKSt3__119__map_value_compareINS_12basic_stringIcNS_11char_traitsIcEENS_9allocatorIcEEEENS_12__value_typeIS6_NS_3mapIiiNS_4lessIiEENS4_INS_4pairIKiiEEEEEEEENS9_IS6_EELb1EEclB7v160006ERKS6_RKSG_, symObjAddr: 0x6C9C, symBinAddr: 0x100009D74, symSize: 0x50 }
  - { offsetInCU: 0x1B87D, offset: 0x1B87D, size: 0x8, addend: 0x0, symName: __ZNKSt3__121__tree_const_iteratorINS_12__value_typeINS_12basic_stringIcNS_11char_traitsIcEENS_9allocatorIcEEEENS_3mapIiiNS_4lessIiEENS5_INS_4pairIKiiEEEEEEEEPNS_11__tree_nodeISG_PvEElEdeB7v160006Ev, symObjAddr: 0x6CEC, symBinAddr: 0x100009DC4, symSize: 0x28 }
  - { offsetInCU: 0x1B8A3, offset: 0x1B8A3, size: 0x8, addend: 0x0, symName: __ZNSt3__16__treeINS_12__value_typeINS_12basic_stringIcNS_11char_traitsIcEENS_9allocatorIcEEEENS_3mapIiiNS_4lessIiEENS5_INS_4pairIKiiEEEEEEEENS_19__map_value_compareIS7_SG_NS9_IS7_EELb1EEENS5_ISG_EEE5beginB7v160006Ev, symObjAddr: 0x6D14, symBinAddr: 0x100009DEC, symSize: 0x34 }
  - { offsetInCU: 0x1B8C9, offset: 0x1B8C9, size: 0x8, addend: 0x0, symName: __ZNKSt3__119__map_value_compareINS_12basic_stringIcNS_11char_traitsIcEENS_9allocatorIcEEEENS_12__value_typeIS6_NS_3mapIiiNS_4lessIiEENS4_INS_4pairIKiiEEEEEEEENS9_IS6_EELb1EEclB7v160006ERKSG_RKS6_, symObjAddr: 0x6D48, symBinAddr: 0x100009E20, symSize: 0x48 }
  - { offsetInCU: 0x1B90D, offset: 0x1B90D, size: 0x8, addend: 0x0, symName: __ZNSt3__121__tree_const_iteratorINS_12__value_typeINS_12basic_stringIcNS_11char_traitsIcEENS_9allocatorIcEEEENS_3mapIiiNS_4lessIiEENS5_INS_4pairIKiiEEEEEEEEPNS_11__tree_nodeISG_PvEElEmmB7v160006Ev, symObjAddr: 0x6D90, symBinAddr: 0x100009E68, symSize: 0x38 }
  - { offsetInCU: 0x1B933, offset: 0x1B933, size: 0x8, addend: 0x0, symName: __ZNSt3__16__treeINS_12__value_typeINS_12basic_stringIcNS_11char_traitsIcEENS_9allocatorIcEEEENS_3mapIiiNS_4lessIiEENS5_INS_4pairIKiiEEEEEEEENS_19__map_value_compareIS7_SG_NS9_IS7_EELb1EEENS5_ISG_EEE12__find_equalIS7_EERPNS_16__tree_node_baseIPvEERPNS_15__tree_end_nodeISQ_EERKT_, symObjAddr: 0x6DC8, symBinAddr: 0x100009EA0, symSize: 0x184 }
  - { offsetInCU: 0x1B9A0, offset: 0x1B9A0, size: 0x8, addend: 0x0, symName: __ZNKSt3__121__tree_const_iteratorINS_12__value_typeINS_12basic_stringIcNS_11char_traitsIcEENS_9allocatorIcEEEENS_3mapIiiNS_4lessIiEENS5_INS_4pairIKiiEEEEEEEEPNS_11__tree_nodeISG_PvEElE8__get_npB7v160006Ev, symObjAddr: 0x6F9C, symBinAddr: 0x10000A074, symSize: 0x18 }
  - { offsetInCU: 0x1B9C6, offset: 0x1B9C6, size: 0x8, addend: 0x0, symName: __ZNSt3__115__tree_iteratorINS_12__value_typeINS_12basic_stringIcNS_11char_traitsIcEENS_9allocatorIcEEEENS_3mapIiiNS_4lessIiEENS5_INS_4pairIKiiEEEEEEEEPNS_11__tree_nodeISG_PvEElEC1B7v160006EPNS_15__tree_end_nodeIPNS_16__tree_node_baseISI_EEEE, symObjAddr: 0x6FB4, symBinAddr: 0x10000A08C, symSize: 0x34 }
  - { offsetInCU: 0x1B9FF, offset: 0x1B9FF, size: 0x8, addend: 0x0, symName: __ZNSt3__115__tree_iteratorINS_12__value_typeINS_12basic_stringIcNS_11char_traitsIcEENS_9allocatorIcEEEENS_3mapIiiNS_4lessIiEENS5_INS_4pairIKiiEEEEEEEEPNS_11__tree_nodeISG_PvEElEC2B7v160006EPNS_15__tree_end_nodeIPNS_16__tree_node_baseISI_EEEE, symObjAddr: 0x6FE8, symBinAddr: 0x10000A0C0, symSize: 0x20 }
  - { offsetInCU: 0x1BA38, offset: 0x1BA38, size: 0x8, addend: 0x0, symName: __ZNSt3__121__tree_const_iteratorINS_12__value_typeINS_12basic_stringIcNS_11char_traitsIcEENS_9allocatorIcEEEENS_3mapIiiNS_4lessIiEENS5_INS_4pairIKiiEEEEEEEEPNS_11__tree_nodeISG_PvEElEC2B7v160006ENS_15__tree_iteratorISG_SK_lEE, symObjAddr: 0x7008, symBinAddr: 0x10000A0E0, symSize: 0x20 }
  - { offsetInCU: 0x1BA71, offset: 0x1BA71, size: 0x8, addend: 0x0, symName: __ZNSt3__117__compressed_pairImNS_19__map_value_compareINS_12basic_stringIcNS_11char_traitsIcEENS_9allocatorIcEEEENS_12__value_typeIS7_NS_3mapIiiNS_4lessIiEENS5_INS_4pairIKiiEEEEEEEENSA_IS7_EELb1EEEE6secondB7v160006Ev, symObjAddr: 0x7028, symBinAddr: 0x10000A100, symSize: 0x24 }
  - { offsetInCU: 0x1BA97, offset: 0x1BA97, size: 0x8, addend: 0x0, symName: __ZNSt3__122__compressed_pair_elemINS_19__map_value_compareINS_12basic_stringIcNS_11char_traitsIcEENS_9allocatorIcEEEENS_12__value_typeIS7_NS_3mapIiiNS_4lessIiEENS5_INS_4pairIKiiEEEEEEEENSA_IS7_EELb1EEELi1ELb1EE5__getB7v160006Ev, symObjAddr: 0x704C, symBinAddr: 0x10000A124, symSize: 0x14 }
  - { offsetInCU: 0x1BABD, offset: 0x1BABD, size: 0x8, addend: 0x0, symName: __ZNKSt3__14lessINS_12basic_stringIcNS_11char_traitsIcEENS_9allocatorIcEEEEEclB7v160006ERKS6_S9_, symObjAddr: 0x7060, symBinAddr: 0x10000A138, symSize: 0x34 }
  - { offsetInCU: 0x1BB01, offset: 0x1BB01, size: 0x8, addend: 0x0, symName: __ZNKSt3__112__value_typeINS_12basic_stringIcNS_11char_traitsIcEENS_9allocatorIcEEEENS_3mapIiiNS_4lessIiEENS4_INS_4pairIKiiEEEEEEE11__get_valueB7v160006Ev, symObjAddr: 0x7094, symBinAddr: 0x10000A16C, symSize: 0x14 }
  - { offsetInCU: 0x1BB27, offset: 0x1BB27, size: 0x8, addend: 0x0, symName: __ZNKSt3__112basic_stringIcNS_11char_traitsIcEENS_9allocatorIcEEE7compareB7v160006ERKS5_, symObjAddr: 0x70E0, symBinAddr: 0x10000A1B8, symSize: 0x4C }
  - { offsetInCU: 0x1BB5E, offset: 0x1BB5E, size: 0x8, addend: 0x0, symName: __ZNKSt3__112basic_stringIcNS_11char_traitsIcEENS_9allocatorIcEEE7compareINS_17basic_string_viewIcS2_EEEENS_9enable_ifIXsr33__can_be_converted_to_string_viewIcS2_T_EE5valueEiE4typeERKSA_, symObjAddr: 0x712C, symBinAddr: 0x10000A204, symSize: 0x12C }
  - { offsetInCU: 0x1BBDB, offset: 0x1BBDB, size: 0x8, addend: 0x0, symName: __ZNKSt3__112basic_stringIcNS_11char_traitsIcEENS_9allocatorIcEEEcvNS_17basic_string_viewIcS2_EEB7v160006Ev, symObjAddr: 0x7258, symBinAddr: 0x10000A330, symSize: 0x50 }
  - { offsetInCU: 0x1BC01, offset: 0x1BC01, size: 0x8, addend: 0x0, symName: __ZNKSt3__112basic_stringIcNS_11char_traitsIcEENS_9allocatorIcEEE4sizeB7v160006Ev, symObjAddr: 0x72A8, symBinAddr: 0x10000A380, symSize: 0x54 }
  - { offsetInCU: 0x1BC27, offset: 0x1BC27, size: 0x8, addend: 0x0, symName: __ZNKSt3__117basic_string_viewIcNS_11char_traitsIcEEE4sizeB7v160006Ev, symObjAddr: 0x72FC, symBinAddr: 0x10000A3D4, symSize: 0x18 }
  - { offsetInCU: 0x1BC4D, offset: 0x1BC4D, size: 0x8, addend: 0x0, symName: __ZNSt3__111char_traitsIcE7compareEPKcS3_m, symObjAddr: 0x7314, symBinAddr: 0x10000A3EC, symSize: 0x6C }
  - { offsetInCU: 0x1BC8C, offset: 0x1BC8C, size: 0x8, addend: 0x0, symName: __ZNKSt3__112basic_stringIcNS_11char_traitsIcEENS_9allocatorIcEEE4dataB7v160006Ev, symObjAddr: 0x7380, symBinAddr: 0x10000A458, symSize: 0x28 }
  - { offsetInCU: 0x1BCB2, offset: 0x1BCB2, size: 0x8, addend: 0x0, symName: __ZNKSt3__117basic_string_viewIcNS_11char_traitsIcEEE4dataB7v160006Ev, symObjAddr: 0x73A8, symBinAddr: 0x10000A480, symSize: 0x18 }
  - { offsetInCU: 0x1BCD8, offset: 0x1BCD8, size: 0x8, addend: 0x0, symName: __ZNKSt3__112basic_stringIcNS_11char_traitsIcEENS_9allocatorIcEEE9__is_longB7v160006Ev, symObjAddr: 0x73EC, symBinAddr: 0x10000A4C4, symSize: 0x38 }
  - { offsetInCU: 0x1BCFE, offset: 0x1BCFE, size: 0x8, addend: 0x0, symName: __ZNKSt3__112basic_stringIcNS_11char_traitsIcEENS_9allocatorIcEEE15__get_long_sizeB7v160006Ev, symObjAddr: 0x7424, symBinAddr: 0x10000A4FC, symSize: 0x28 }
  - { offsetInCU: 0x1BD24, offset: 0x1BD24, size: 0x8, addend: 0x0, symName: __ZNKSt3__112basic_stringIcNS_11char_traitsIcEENS_9allocatorIcEEE16__get_short_sizeB7v160006Ev, symObjAddr: 0x744C, symBinAddr: 0x10000A524, symSize: 0x34 }
  - { offsetInCU: 0x1BD4A, offset: 0x1BD4A, size: 0x8, addend: 0x0, symName: __ZNKSt3__117__compressed_pairINS_12basic_stringIcNS_11char_traitsIcEENS_9allocatorIcEEE5__repES5_E5firstB7v160006Ev, symObjAddr: 0x7480, symBinAddr: 0x10000A558, symSize: 0x24 }
  - { offsetInCU: 0x1BD70, offset: 0x1BD70, size: 0x8, addend: 0x0, symName: __ZNKSt3__122__compressed_pair_elemINS_12basic_stringIcNS_11char_traitsIcEENS_9allocatorIcEEE5__repELi0ELb0EE5__getB7v160006Ev, symObjAddr: 0x74A4, symBinAddr: 0x10000A57C, symSize: 0x14 }
  - { offsetInCU: 0x1BD96, offset: 0x1BD96, size: 0x8, addend: 0x0, symName: __ZNKSt3__112basic_stringIcNS_11char_traitsIcEENS_9allocatorIcEEE13__get_pointerB7v160006Ev, symObjAddr: 0x7500, symBinAddr: 0x10000A5D8, symSize: 0x54 }
  - { offsetInCU: 0x1BDBC, offset: 0x1BDBC, size: 0x8, addend: 0x0, symName: __ZNKSt3__112basic_stringIcNS_11char_traitsIcEENS_9allocatorIcEEE18__get_long_pointerB7v160006Ev, symObjAddr: 0x7554, symBinAddr: 0x10000A62C, symSize: 0x28 }
  - { offsetInCU: 0x1BDE2, offset: 0x1BDE2, size: 0x8, addend: 0x0, symName: __ZNKSt3__112basic_stringIcNS_11char_traitsIcEENS_9allocatorIcEEE19__get_short_pointerB7v160006Ev, symObjAddr: 0x757C, symBinAddr: 0x10000A654, symSize: 0x28 }
  - { offsetInCU: 0x1BE08, offset: 0x1BE08, size: 0x8, addend: 0x0, symName: __ZNSt3__114pointer_traitsIPKcE10pointer_toB7v160006ERS1_, symObjAddr: 0x75A4, symBinAddr: 0x10000A67C, symSize: 0x14 }
  - { offsetInCU: 0x1BE35, offset: 0x1BE35, size: 0x8, addend: 0x0, symName: __ZNKSt3__16__lessImmEclB7v160006ERKmS3_, symObjAddr: 0x760C, symBinAddr: 0x10000A6E4, symSize: 0x34 }
  - { offsetInCU: 0x1BE77, offset: 0x1BE77, size: 0x8, addend: 0x0, symName: __ZNSt3__117basic_string_viewIcNS_11char_traitsIcEEEC1B7v160006EPKcm, symObjAddr: 0x7640, symBinAddr: 0x10000A718, symSize: 0x3C }
  - { offsetInCU: 0x1BEBF, offset: 0x1BEBF, size: 0x8, addend: 0x0, symName: __ZNSt3__117basic_string_viewIcNS_11char_traitsIcEEEC2B7v160006EPKcm, symObjAddr: 0x767C, symBinAddr: 0x10000A754, symSize: 0x50 }
  - { offsetInCU: 0x1BF07, offset: 0x1BF07, size: 0x8, addend: 0x0, symName: __ZNKSt3__16__treeINS_12__value_typeINS_12basic_stringIcNS_11char_traitsIcEENS_9allocatorIcEEEENS_3mapIiiNS_4lessIiEENS5_INS_4pairIKiiEEEEEEEENS_19__map_value_compareIS7_SG_NS9_IS7_EELb1EEENS5_ISG_EEE6__rootB7v160006Ev, symObjAddr: 0x76CC, symBinAddr: 0x10000A7A4, symSize: 0x28 }
  - { offsetInCU: 0x1BF2D, offset: 0x1BF2D, size: 0x8, addend: 0x0, symName: __ZNKSt3__16__treeINS_12__value_typeINS_12basic_stringIcNS_11char_traitsIcEENS_9allocatorIcEEEENS_3mapIiiNS_4lessIiEENS5_INS_4pairIKiiEEEEEEEENS_19__map_value_compareIS7_SG_NS9_IS7_EELb1EEENS5_ISG_EEE10__root_ptrEv, symObjAddr: 0x76F4, symBinAddr: 0x10000A7CC, symSize: 0x24 }
  - { offsetInCU: 0x1BF53, offset: 0x1BF53, size: 0x8, addend: 0x0, symName: __ZNSt3__121__tree_const_iteratorINS_12__value_typeINS_12basic_stringIcNS_11char_traitsIcEENS_9allocatorIcEEEENS_3mapIiiNS_4lessIiEENS5_INS_4pairIKiiEEEEEEEEPNS_11__tree_nodeISG_PvEElEppB7v160006Ev, symObjAddr: 0x780C, symBinAddr: 0x10000A8E4, symSize: 0x38 }
  - { offsetInCU: 0x1BF79, offset: 0x1BF79, size: 0x8, addend: 0x0, symName: __ZNSt3__16__treeINS_12__value_typeINS_12basic_stringIcNS_11char_traitsIcEENS_9allocatorIcEEEENS_3mapIiiNS_4lessIiEENS5_INS_4pairIKiiEEEEEEEENS_19__map_value_compareIS7_SG_NS9_IS7_EELb1EEENS5_ISG_EEE12__node_allocB7v160006Ev, symObjAddr: 0x7844, symBinAddr: 0x10000A91C, symSize: 0x28 }
  - { offsetInCU: 0x1BF9F, offset: 0x1BF9F, size: 0x8, addend: 0x0, symName: __ZNSt3__116allocator_traitsINS_9allocatorINS_11__tree_nodeINS_12__value_typeINS_12basic_stringIcNS_11char_traitsIcEENS1_IcEEEENS_3mapIiiNS_4lessIiEENS1_INS_4pairIKiiEEEEEEEEPvEEEEE8allocateB7v160006ERSK_m, symObjAddr: 0x786C, symBinAddr: 0x10000A944, symSize: 0x2C }
  - { offsetInCU: 0x1BFD2, offset: 0x1BFD2, size: 0x8, addend: 0x0, symName: __ZNSt3__122__tree_node_destructorINS_9allocatorINS_11__tree_nodeINS_12__value_typeINS_12basic_stringIcNS_11char_traitsIcEENS1_IcEEEENS_3mapIiiNS_4lessIiEENS1_INS_4pairIKiiEEEEEEEEPvEEEEEC1B7v160006ERSK_b, symObjAddr: 0x7898, symBinAddr: 0x10000A970, symSize: 0x48 }
  - { offsetInCU: 0x1C020, offset: 0x1C020, size: 0x8, addend: 0x0, symName: __ZNSt3__110unique_ptrINS_11__tree_nodeINS_12__value_typeINS_12basic_stringIcNS_11char_traitsIcEENS_9allocatorIcEEEENS_3mapIiiNS_4lessIiEENS6_INS_4pairIKiiEEEEEEEEPvEENS_22__tree_node_destructorINS6_ISJ_EEEEEC1B7v160006ILb1EvEEPSJ_NS_16__dependent_typeINS_27__unique_ptr_deleter_sfinaeISM_EEXT_EE20__good_rval_ref_typeE, symObjAddr: 0x78E0, symBinAddr: 0x10000A9B8, symSize: 0x3C }
  - { offsetInCU: 0x1C071, offset: 0x1C071, size: 0x8, addend: 0x0, symName: __ZNSt3__116allocator_traitsINS_9allocatorINS_11__tree_nodeINS_12__value_typeINS_12basic_stringIcNS_11char_traitsIcEENS1_IcEEEENS_3mapIiiNS_4lessIiEENS1_INS_4pairIKiiEEEEEEEEPvEEEEE9constructB7v160006INSC_IKS8_SG_EEJRKSO_EvEEvRSK_PT_DpOT0_, symObjAddr: 0x791C, symBinAddr: 0x10000A9F4, symSize: 0x34 }
  - { offsetInCU: 0x1C0C8, offset: 0x1C0C8, size: 0x8, addend: 0x0, symName: __ZNSt3__122__tree_key_value_typesINS_12__value_typeINS_12basic_stringIcNS_11char_traitsIcEENS_9allocatorIcEEEENS_3mapIiiNS_4lessIiEENS5_INS_4pairIKiiEEEEEEEEE9__get_ptrB7v160006ERSG_, symObjAddr: 0x7950, symBinAddr: 0x10000AA28, symSize: 0x24 }
  - { offsetInCU: 0x1C0EC, offset: 0x1C0EC, size: 0x8, addend: 0x0, symName: __ZNKSt3__110unique_ptrINS_11__tree_nodeINS_12__value_typeINS_12basic_stringIcNS_11char_traitsIcEENS_9allocatorIcEEEENS_3mapIiiNS_4lessIiEENS6_INS_4pairIKiiEEEEEEEEPvEENS_22__tree_node_destructorINS6_ISJ_EEEEEptB7v160006Ev, symObjAddr: 0x7974, symBinAddr: 0x10000AA4C, symSize: 0x28 }
  - { offsetInCU: 0x1C112, offset: 0x1C112, size: 0x8, addend: 0x0, symName: __ZNSt3__110unique_ptrINS_11__tree_nodeINS_12__value_typeINS_12basic_stringIcNS_11char_traitsIcEENS_9allocatorIcEEEENS_3mapIiiNS_4lessIiEENS6_INS_4pairIKiiEEEEEEEEPvEENS_22__tree_node_destructorINS6_ISJ_EEEEE11get_deleterB7v160006Ev, symObjAddr: 0x799C, symBinAddr: 0x10000AA74, symSize: 0x24 }
  - { offsetInCU: 0x1C138, offset: 0x1C138, size: 0x8, addend: 0x0, symName: __ZNSt3__117__compressed_pairINS_15__tree_end_nodeIPNS_16__tree_node_baseIPvEEEENS_9allocatorINS_11__tree_nodeINS_12__value_typeINS_12basic_stringIcNS_11char_traitsIcEENS7_IcEEEENS_3mapIiiNS_4lessIiEENS7_INS_4pairIKiiEEEEEEEES3_EEEEE6secondB7v160006Ev, symObjAddr: 0x79C0, symBinAddr: 0x10000AA98, symSize: 0x24 }
  - { offsetInCU: 0x1C15E, offset: 0x1C15E, size: 0x8, addend: 0x0, symName: __ZNSt3__122__compressed_pair_elemINS_9allocatorINS_11__tree_nodeINS_12__value_typeINS_12basic_stringIcNS_11char_traitsIcEENS1_IcEEEENS_3mapIiiNS_4lessIiEENS1_INS_4pairIKiiEEEEEEEEPvEEEELi1ELb1EE5__getB7v160006Ev, symObjAddr: 0x79E4, symBinAddr: 0x10000AABC, symSize: 0x14 }
  - { offsetInCU: 0x1C184, offset: 0x1C184, size: 0x8, addend: 0x0, symName: __ZNSt3__19allocatorINS_11__tree_nodeINS_12__value_typeINS_12basic_stringIcNS_11char_traitsIcEENS0_IcEEEENS_3mapIiiNS_4lessIiEENS0_INS_4pairIKiiEEEEEEEEPvEEE8allocateB7v160006Em, symObjAddr: 0x79F8, symBinAddr: 0x10000AAD0, symSize: 0x5C }
  - { offsetInCU: 0x1C1C3, offset: 0x1C1C3, size: 0x8, addend: 0x0, symName: __ZNSt3__116allocator_traitsINS_9allocatorINS_11__tree_nodeINS_12__value_typeINS_12basic_stringIcNS_11char_traitsIcEENS1_IcEEEENS_3mapIiiNS_4lessIiEENS1_INS_4pairIKiiEEEEEEEEPvEEEEE8max_sizeB7v160006ISK_vEEmRKSK_, symObjAddr: 0x7A54, symBinAddr: 0x10000AB2C, symSize: 0x24 }
  - { offsetInCU: 0x1C1F1, offset: 0x1C1F1, size: 0x8, addend: 0x0, symName: __ZNKSt3__19allocatorINS_11__tree_nodeINS_12__value_typeINS_12basic_stringIcNS_11char_traitsIcEENS0_IcEEEENS_3mapIiiNS_4lessIiEENS0_INS_4pairIKiiEEEEEEEEPvEEE8max_sizeB7v160006Ev, symObjAddr: 0x7A78, symBinAddr: 0x10000AB50, symSize: 0x18 }
  - { offsetInCU: 0x1C217, offset: 0x1C217, size: 0x8, addend: 0x0, symName: __ZNSt3__122__tree_node_destructorINS_9allocatorINS_11__tree_nodeINS_12__value_typeINS_12basic_stringIcNS_11char_traitsIcEENS1_IcEEEENS_3mapIiiNS_4lessIiEENS1_INS_4pairIKiiEEEEEEEEPvEEEEEC2B7v160006ERSK_b, symObjAddr: 0x7A90, symBinAddr: 0x10000AB68, symSize: 0x38 }
  - { offsetInCU: 0x1C25F, offset: 0x1C25F, size: 0x8, addend: 0x0, symName: __ZNSt3__110unique_ptrINS_11__tree_nodeINS_12__value_typeINS_12basic_stringIcNS_11char_traitsIcEENS_9allocatorIcEEEENS_3mapIiiNS_4lessIiEENS6_INS_4pairIKiiEEEEEEEEPvEENS_22__tree_node_destructorINS6_ISJ_EEEEEC2B7v160006ILb1EvEEPSJ_NS_16__dependent_typeINS_27__unique_ptr_deleter_sfinaeISM_EEXT_EE20__good_rval_ref_typeE, symObjAddr: 0x7AC8, symBinAddr: 0x10000ABA0, symSize: 0x48 }
  - { offsetInCU: 0x1C2B0, offset: 0x1C2B0, size: 0x8, addend: 0x0, symName: __ZNSt3__117__compressed_pairIPNS_11__tree_nodeINS_12__value_typeINS_12basic_stringIcNS_11char_traitsIcEENS_9allocatorIcEEEENS_3mapIiiNS_4lessIiEENS6_INS_4pairIKiiEEEEEEEEPvEENS_22__tree_node_destructorINS6_ISJ_EEEEEC1B7v160006IRSK_SN_EEOT_OT0_, symObjAddr: 0x7B10, symBinAddr: 0x10000ABE8, symSize: 0x3C }
  - { offsetInCU: 0x1C308, offset: 0x1C308, size: 0x8, addend: 0x0, symName: __ZNSt3__117__compressed_pairIPNS_11__tree_nodeINS_12__value_typeINS_12basic_stringIcNS_11char_traitsIcEENS_9allocatorIcEEEENS_3mapIiiNS_4lessIiEENS6_INS_4pairIKiiEEEEEEEEPvEENS_22__tree_node_destructorINS6_ISJ_EEEEEC2B7v160006IRSK_SN_EEOT_OT0_, symObjAddr: 0x7B4C, symBinAddr: 0x10000AC24, symSize: 0x48 }
  - { offsetInCU: 0x1C360, offset: 0x1C360, size: 0x8, addend: 0x0, symName: __ZNSt3__122__compressed_pair_elemIPNS_11__tree_nodeINS_12__value_typeINS_12basic_stringIcNS_11char_traitsIcEENS_9allocatorIcEEEENS_3mapIiiNS_4lessIiEENS6_INS_4pairIKiiEEEEEEEEPvEELi0ELb0EEC2B7v160006IRSK_vEEOT_, symObjAddr: 0x7B94, symBinAddr: 0x10000AC6C, symSize: 0x24 }
  - { offsetInCU: 0x1C3A2, offset: 0x1C3A2, size: 0x8, addend: 0x0, symName: __ZNSt3__122__compressed_pair_elemINS_22__tree_node_destructorINS_9allocatorINS_11__tree_nodeINS_12__value_typeINS_12basic_stringIcNS_11char_traitsIcEENS2_IcEEEENS_3mapIiiNS_4lessIiEENS2_INS_4pairIKiiEEEEEEEEPvEEEEEELi1ELb0EEC2B7v160006ISM_vEEOT_, symObjAddr: 0x7BB8, symBinAddr: 0x10000AC90, symSize: 0x24 }
  - { offsetInCU: 0x1C3E4, offset: 0x1C3E4, size: 0x8, addend: 0x0, symName: __ZNSt3__19allocatorINS_11__tree_nodeINS_12__value_typeINS_12basic_stringIcNS_11char_traitsIcEENS0_IcEEEENS_3mapIiiNS_4lessIiEENS0_INS_4pairIKiiEEEEEEEEPvEEE9constructB7v160006INSB_IKS7_SF_EEJRKSM_EEEvPT_DpOT0_, symObjAddr: 0x7BDC, symBinAddr: 0x10000ACB4, symSize: 0x30 }
  - { offsetInCU: 0x1C43A, offset: 0x1C43A, size: 0x8, addend: 0x0, symName: __ZNSt3__14pairIKNS_12basic_stringIcNS_11char_traitsIcEENS_9allocatorIcEEEENS_3mapIiiNS_4lessIiEENS4_INS0_IKiiEEEEEEEC1ERKSF_, symObjAddr: 0x7C0C, symBinAddr: 0x10000ACE4, symSize: 0x34 }
  - { offsetInCU: 0x1C46E, offset: 0x1C46E, size: 0x8, addend: 0x0, symName: __ZNSt3__14pairIKNS_12basic_stringIcNS_11char_traitsIcEENS_9allocatorIcEEEENS_3mapIiiNS_4lessIiEENS4_INS0_IKiiEEEEEEEC2ERKSF_, symObjAddr: 0x7C40, symBinAddr: 0x10000AD18, symSize: 0x70 }
  - { offsetInCU: 0x1C4A2, offset: 0x1C4A2, size: 0x8, addend: 0x0, symName: __ZNSt3__112__value_typeINS_12basic_stringIcNS_11char_traitsIcEENS_9allocatorIcEEEENS_3mapIiiNS_4lessIiEENS4_INS_4pairIKiiEEEEEEE11__get_valueB7v160006Ev, symObjAddr: 0x7CB0, symBinAddr: 0x10000AD88, symSize: 0x14 }
  - { offsetInCU: 0x1C4C8, offset: 0x1C4C8, size: 0x8, addend: 0x0, symName: __ZNKSt3__117__compressed_pairIPNS_11__tree_nodeINS_12__value_typeINS_12basic_stringIcNS_11char_traitsIcEENS_9allocatorIcEEEENS_3mapIiiNS_4lessIiEENS6_INS_4pairIKiiEEEEEEEEPvEENS_22__tree_node_destructorINS6_ISJ_EEEEE5firstB7v160006Ev, symObjAddr: 0x7CC4, symBinAddr: 0x10000AD9C, symSize: 0x24 }
  - { offsetInCU: 0x1C4EE, offset: 0x1C4EE, size: 0x8, addend: 0x0, symName: __ZNKSt3__122__compressed_pair_elemIPNS_11__tree_nodeINS_12__value_typeINS_12basic_stringIcNS_11char_traitsIcEENS_9allocatorIcEEEENS_3mapIiiNS_4lessIiEENS6_INS_4pairIKiiEEEEEEEEPvEELi0ELb0EE5__getB7v160006Ev, symObjAddr: 0x7CE8, symBinAddr: 0x10000ADC0, symSize: 0x14 }
  - { offsetInCU: 0x1C514, offset: 0x1C514, size: 0x8, addend: 0x0, symName: __ZNSt3__117__compressed_pairIPNS_11__tree_nodeINS_12__value_typeINS_12basic_stringIcNS_11char_traitsIcEENS_9allocatorIcEEEENS_3mapIiiNS_4lessIiEENS6_INS_4pairIKiiEEEEEEEEPvEENS_22__tree_node_destructorINS6_ISJ_EEEEE6secondB7v160006Ev, symObjAddr: 0x7CFC, symBinAddr: 0x10000ADD4, symSize: 0x28 }
  - { offsetInCU: 0x1C53A, offset: 0x1C53A, size: 0x8, addend: 0x0, symName: __ZNSt3__122__compressed_pair_elemINS_22__tree_node_destructorINS_9allocatorINS_11__tree_nodeINS_12__value_typeINS_12basic_stringIcNS_11char_traitsIcEENS2_IcEEEENS_3mapIiiNS_4lessIiEENS2_INS_4pairIKiiEEEEEEEEPvEEEEEELi1ELb0EE5__getB7v160006Ev, symObjAddr: 0x7D24, symBinAddr: 0x10000ADFC, symSize: 0x14 }
  - { offsetInCU: 0x1C560, offset: 0x1C560, size: 0x8, addend: 0x0, symName: __ZNSt3__16__treeINS_12__value_typeINS_12basic_stringIcNS_11char_traitsIcEENS_9allocatorIcEEEENS_3mapIiiNS_4lessIiEENS5_INS_4pairIKiiEEEEEEEENS_19__map_value_compareIS7_SG_NS9_IS7_EELb1EEENS5_ISG_EEE4sizeB7v160006Ev, symObjAddr: 0x7D38, symBinAddr: 0x10000AE10, symSize: 0x28 }
  - { offsetInCU: 0x1C586, offset: 0x1C586, size: 0x8, addend: 0x0, symName: __ZNSt3__117__compressed_pairImNS_19__map_value_compareINS_12basic_stringIcNS_11char_traitsIcEENS_9allocatorIcEEEENS_12__value_typeIS7_NS_3mapIiiNS_4lessIiEENS5_INS_4pairIKiiEEEEEEEENSA_IS7_EELb1EEEE5firstB7v160006Ev, symObjAddr: 0x7D60, symBinAddr: 0x10000AE38, symSize: 0x24 }
  - { offsetInCU: 0x1C5AC, offset: 0x1C5AC, size: 0x8, addend: 0x0, symName: __ZNSt3__117__compressed_pairIPNS_11__tree_nodeINS_12__value_typeINS_12basic_stringIcNS_11char_traitsIcEENS_9allocatorIcEEEENS_3mapIiiNS_4lessIiEENS6_INS_4pairIKiiEEEEEEEEPvEENS_22__tree_node_destructorINS6_ISJ_EEEEE5firstB7v160006Ev, symObjAddr: 0x7D84, symBinAddr: 0x10000AE5C, symSize: 0x24 }
  - { offsetInCU: 0x1C5D2, offset: 0x1C5D2, size: 0x8, addend: 0x0, symName: __ZNSt3__122__compressed_pair_elemIPNS_11__tree_nodeINS_12__value_typeINS_12basic_stringIcNS_11char_traitsIcEENS_9allocatorIcEEEENS_3mapIiiNS_4lessIiEENS6_INS_4pairIKiiEEEEEEEEPvEELi0ELb0EE5__getB7v160006Ev, symObjAddr: 0x7DA8, symBinAddr: 0x10000AE80, symSize: 0x14 }
  - { offsetInCU: 0x1C5F8, offset: 0x1C5F8, size: 0x8, addend: 0x0, symName: __ZNSt3__110unique_ptrINS_11__tree_nodeINS_12__value_typeINS_12basic_stringIcNS_11char_traitsIcEENS_9allocatorIcEEEENS_3mapIiiNS_4lessIiEENS6_INS_4pairIKiiEEEEEEEEPvEENS_22__tree_node_destructorINS6_ISJ_EEEEED2B7v160006Ev, symObjAddr: 0x7DBC, symBinAddr: 0x10000AE94, symSize: 0x30 }
  - { offsetInCU: 0x1C622, offset: 0x1C622, size: 0x8, addend: 0x0, symName: __ZNSt3__110unique_ptrINS_11__tree_nodeINS_12__value_typeINS_12basic_stringIcNS_11char_traitsIcEENS_9allocatorIcEEEENS_3mapIiiNS_4lessIiEENS6_INS_4pairIKiiEEEEEEEEPvEENS_22__tree_node_destructorINS6_ISJ_EEEEE5resetB7v160006EPSJ_, symObjAddr: 0x7DEC, symBinAddr: 0x10000AEC4, symSize: 0x78 }
  - { offsetInCU: 0x1C666, offset: 0x1C666, size: 0x8, addend: 0x0, symName: __ZNSt3__122__tree_node_destructorINS_9allocatorINS_11__tree_nodeINS_12__value_typeINS_12basic_stringIcNS_11char_traitsIcEENS1_IcEEEENS_3mapIiiNS_4lessIiEENS1_INS_4pairIKiiEEEEEEEEPvEEEEEclB7v160006EPSJ_, symObjAddr: 0x7E64, symBinAddr: 0x10000AF3C, symSize: 0x98 }
  - { offsetInCU: 0x1C69B, offset: 0x1C69B, size: 0x8, addend: 0x0, symName: __ZNSt3__116allocator_traitsINS_9allocatorINS_11__tree_nodeINS_12__value_typeINS_12basic_stringIcNS_11char_traitsIcEENS1_IcEEEENS_3mapIiiNS_4lessIiEENS1_INS_4pairIKiiEEEEEEEEPvEEEEE7destroyB7v160006INSC_IKS8_SG_EEvvEEvRSK_PT_, symObjAddr: 0x7EFC, symBinAddr: 0x10000AFD4, symSize: 0x28 }
  - { offsetInCU: 0x1C6D6, offset: 0x1C6D6, size: 0x8, addend: 0x0, symName: __ZNSt3__116allocator_traitsINS_9allocatorINS_11__tree_nodeINS_12__value_typeINS_12basic_stringIcNS_11char_traitsIcEENS1_IcEEEENS_3mapIiiNS_4lessIiEENS1_INS_4pairIKiiEEEEEEEEPvEEEEE10deallocateB7v160006ERSK_PSJ_m, symObjAddr: 0x7F24, symBinAddr: 0x10000AFFC, symSize: 0x34 }
  - { offsetInCU: 0x1C718, offset: 0x1C718, size: 0x8, addend: 0x0, symName: __ZNSt3__19allocatorINS_11__tree_nodeINS_12__value_typeINS_12basic_stringIcNS_11char_traitsIcEENS0_IcEEEENS_3mapIiiNS_4lessIiEENS0_INS_4pairIKiiEEEEEEEEPvEEE10deallocateB7v160006EPSI_m, symObjAddr: 0x7F58, symBinAddr: 0x10000B030, symSize: 0x44 }
  - { offsetInCU: 0x1C75A, offset: 0x1C75A, size: 0x8, addend: 0x0, symName: __ZNSt3__115__tree_iteratorINS_12__value_typeINS_12basic_stringIcNS_11char_traitsIcEENS_9allocatorIcEEEENS_3mapIiiNS_4lessIiEENS5_INS_4pairIKiiEEEEEEEEPNS_11__tree_nodeISG_PvEElEC2B7v160006ESK_, symObjAddr: 0x7F9C, symBinAddr: 0x10000B074, symSize: 0x20 }
  - { offsetInCU: 0x1C793, offset: 0x1C793, size: 0x8, addend: 0x0, symName: __ZNSt3__14pairINS_15__tree_iteratorINS_12__value_typeINS_12basic_stringIcNS_11char_traitsIcEENS_9allocatorIcEEEENS_3mapIiiNS_4lessIiEENS6_INS0_IKiiEEEEEEEEPNS_11__tree_nodeISG_PvEElEEbEC2B7v160006ISL_RbLSI_0EEEOT_OT0_, symObjAddr: 0x7FBC, symBinAddr: 0x10000B094, symSize: 0x38 }
  - { offsetInCU: 0x1C7F1, offset: 0x1C7F1, size: 0x8, addend: 0x0, symName: __ZNSt3__114__map_iteratorINS_15__tree_iteratorINS_12__value_typeINS_12basic_stringIcNS_11char_traitsIcEENS_9allocatorIcEEEENS_3mapIiiNS_4lessIiEENS6_INS_4pairIKiiEEEEEEEEPNS_11__tree_nodeISH_PvEElEEEC2B7v160006ESM_, symObjAddr: 0x7FF4, symBinAddr: 0x10000B0CC, symSize: 0x20 }
  - { offsetInCU: 0x1C82A, offset: 0x1C82A, size: 0x8, addend: 0x0, symName: __ZNSt3__120__map_const_iteratorINS_21__tree_const_iteratorINS_12__value_typeINS_12basic_stringIcNS_11char_traitsIcEENS_9allocatorIcEEEENS_3mapIiiNS_4lessIiEENS6_INS_4pairIKiiEEEEEEEEPNS_11__tree_nodeISH_PvEElEEEC2B7v160006ESM_, symObjAddr: 0x8014, symBinAddr: 0x10000B0EC, symSize: 0x20 }
  - { offsetInCU: 0x1C863, offset: 0x1C863, size: 0x8, addend: 0x0, symName: __ZNSt3__16__treeINS_12__value_typeINS_12basic_stringIcNS_11char_traitsIcEENS_9allocatorIcEEEENS_3mapIiiNS_4lessIiEENS5_INS_4pairIKiiEEEEEEEENS_19__map_value_compareIS7_SG_NS9_IS7_EELb1EEENS5_ISG_EEED2Ev, symObjAddr: 0x8034, symBinAddr: 0x10000B10C, symSize: 0x38 }
  - { offsetInCU: 0x1C88F, offset: 0x1C88F, size: 0x8, addend: 0x0, symName: __ZNSt3__16__treeINS_12__value_typeINS_12basic_stringIcNS_11char_traitsIcEENS_9allocatorIcEEEENS_3mapIiiNS_4lessIiEENS5_INS_4pairIKiiEEEEEEEENS_19__map_value_compareIS7_SG_NS9_IS7_EELb1EEENS5_ISG_EEE7destroyEPNS_11__tree_nodeISG_PvEE, symObjAddr: 0x806C, symBinAddr: 0x10000B144, symSize: 0xA8 }
  - { offsetInCU: 0x1C8DB, offset: 0x1C8DB, size: 0x8, addend: 0x0, symName: __ZNSt3__14pairIKNS_12basic_stringIcNS_11char_traitsIcEENS_9allocatorIcEEEENS_3mapIS6_NS8_IiiNS_4lessIiEENS4_INS0_IKiiEEEEEENS9_IS6_EENS4_INS0_IS7_SE_EEEEEEEC2B7v160006ILb1ELPv0EEERS7_RKSI_, symObjAddr: 0x8114, symBinAddr: 0x10000B1EC, symSize: 0x70 }
  - { offsetInCU: 0x1C931, offset: 0x1C931, size: 0x8, addend: 0x0, symName: __ZNSt3__13mapINS_12basic_stringIcNS_11char_traitsIcEENS_9allocatorIcEEEENS0_IiiNS_4lessIiEENS4_INS_4pairIKiiEEEEEENS7_IS6_EENS4_INS9_IKS6_SD_EEEEEC1B7v160006ERKSI_, symObjAddr: 0x8184, symBinAddr: 0x10000B25C, symSize: 0x34 }
  - { offsetInCU: 0x1C96A, offset: 0x1C96A, size: 0x8, addend: 0x0, symName: __ZNSt3__13mapINS_12basic_stringIcNS_11char_traitsIcEENS_9allocatorIcEEEENS0_IiiNS_4lessIiEENS4_INS_4pairIKiiEEEEEENS7_IS6_EENS4_INS9_IKS6_SD_EEEEEC2B7v160006ERKSI_, symObjAddr: 0x81B8, symBinAddr: 0x10000B290, symSize: 0x88 }
  - { offsetInCU: 0x1C9A3, offset: 0x1C9A3, size: 0x8, addend: 0x0, symName: __ZNSt3__16__treeINS_12__value_typeINS_12basic_stringIcNS_11char_traitsIcEENS_9allocatorIcEEEENS_3mapIiiNS_4lessIiEENS5_INS_4pairIKiiEEEEEEEENS_19__map_value_compareIS7_SG_NS9_IS7_EELb1EEENS5_ISG_EEEC1ERKSL_, symObjAddr: 0x8240, symBinAddr: 0x10000B318, symSize: 0x34 }
  - { offsetInCU: 0x1C9DE, offset: 0x1C9DE, size: 0x8, addend: 0x0, symName: __ZNSt3__13mapINS_12basic_stringIcNS_11char_traitsIcEENS_9allocatorIcEEEENS0_IiiNS_4lessIiEENS4_INS_4pairIKiiEEEEEENS7_IS6_EENS4_INS9_IKS6_SD_EEEEE6insertB7v160006INS_20__map_const_iteratorINS_21__tree_const_iteratorINS_12__value_typeIS6_SD_EEPNS_11__tree_nodeISN_PvEElEEEEEEvT_SU_, symObjAddr: 0x8274, symBinAddr: 0x10000B34C, symSize: 0x8C }
  - { offsetInCU: 0x1CA48, offset: 0x1CA48, size: 0x8, addend: 0x0, symName: __ZNKSt3__13mapINS_12basic_stringIcNS_11char_traitsIcEENS_9allocatorIcEEEENS0_IiiNS_4lessIiEENS4_INS_4pairIKiiEEEEEENS7_IS6_EENS4_INS9_IKS6_SD_EEEEE5beginB7v160006Ev, symObjAddr: 0x8300, symBinAddr: 0x10000B3D8, symSize: 0x38 }
  - { offsetInCU: 0x1CA6E, offset: 0x1CA6E, size: 0x8, addend: 0x0, symName: __ZNSt3__16__treeINS_12__value_typeINS_12basic_stringIcNS_11char_traitsIcEENS_9allocatorIcEEEENS_3mapIiiNS_4lessIiEENS5_INS_4pairIKiiEEEEEEEENS_19__map_value_compareIS7_SG_NS9_IS7_EELb1EEENS5_ISG_EEEC2ERKSL_, symObjAddr: 0x8338, symBinAddr: 0x10000B410, symSize: 0x9C }
  - { offsetInCU: 0x1CAA9, offset: 0x1CAA9, size: 0x8, addend: 0x0, symName: __ZNSt3__116allocator_traitsINS_9allocatorINS_11__tree_nodeINS_12__value_typeINS_12basic_stringIcNS_11char_traitsIcEENS1_IcEEEENS_3mapIiiNS_4lessIiEENS1_INS_4pairIKiiEEEEEEEEPvEEEEE37select_on_container_copy_constructionB7v160006ISK_vvEESK_RKSK_, symObjAddr: 0x83D4, symBinAddr: 0x10000B4AC, symSize: 0x10 }
  - { offsetInCU: 0x1CAD8, offset: 0x1CAD8, size: 0x8, addend: 0x0, symName: __ZNKSt3__16__treeINS_12__value_typeINS_12basic_stringIcNS_11char_traitsIcEENS_9allocatorIcEEEENS_3mapIiiNS_4lessIiEENS5_INS_4pairIKiiEEEEEEEENS_19__map_value_compareIS7_SG_NS9_IS7_EELb1EEENS5_ISG_EEE12__node_allocB7v160006Ev, symObjAddr: 0x83E4, symBinAddr: 0x10000B4BC, symSize: 0x28 }
  - { offsetInCU: 0x1CB04, offset: 0x1CB04, size: 0x8, addend: 0x0, symName: __ZNSt3__117__compressed_pairINS_15__tree_end_nodeIPNS_16__tree_node_baseIPvEEEENS_9allocatorINS_11__tree_nodeINS_12__value_typeINS_12basic_stringIcNS_11char_traitsIcEENS7_IcEEEENS_3mapIiiNS_4lessIiEENS7_INS_4pairIKiiEEEEEEEES3_EEEEEC1B7v160006INS_18__default_init_tagESP_EEOT_OT0_, symObjAddr: 0x840C, symBinAddr: 0x10000B4E4, symSize: 0x3C }
  - { offsetInCU: 0x1CB5C, offset: 0x1CB5C, size: 0x8, addend: 0x0, symName: __ZNKSt3__16__treeINS_12__value_typeINS_12basic_stringIcNS_11char_traitsIcEENS_9allocatorIcEEEENS_3mapIiiNS_4lessIiEENS5_INS_4pairIKiiEEEEEEEENS_19__map_value_compareIS7_SG_NS9_IS7_EELb1EEENS5_ISG_EEE10value_compB7v160006Ev, symObjAddr: 0x8448, symBinAddr: 0x10000B520, symSize: 0x28 }
  - { offsetInCU: 0x1CB82, offset: 0x1CB82, size: 0x8, addend: 0x0, symName: __ZNKSt3__117__compressed_pairINS_15__tree_end_nodeIPNS_16__tree_node_baseIPvEEEENS_9allocatorINS_11__tree_nodeINS_12__value_typeINS_12basic_stringIcNS_11char_traitsIcEENS7_IcEEEENS_3mapIiiNS_4lessIiEENS7_INS_4pairIKiiEEEEEEEES3_EEEEE6secondB7v160006Ev, symObjAddr: 0x8470, symBinAddr: 0x10000B548, symSize: 0x24 }
  - { offsetInCU: 0x1CBA8, offset: 0x1CBA8, size: 0x8, addend: 0x0, symName: __ZNKSt3__122__compressed_pair_elemINS_9allocatorINS_11__tree_nodeINS_12__value_typeINS_12basic_stringIcNS_11char_traitsIcEENS1_IcEEEENS_3mapIiiNS_4lessIiEENS1_INS_4pairIKiiEEEEEEEEPvEEEELi1ELb1EE5__getB7v160006Ev, symObjAddr: 0x8494, symBinAddr: 0x10000B56C, symSize: 0x14 }
  - { offsetInCU: 0x1CBCE, offset: 0x1CBCE, size: 0x8, addend: 0x0, symName: __ZNSt3__117__compressed_pairINS_15__tree_end_nodeIPNS_16__tree_node_baseIPvEEEENS_9allocatorINS_11__tree_nodeINS_12__value_typeINS_12basic_stringIcNS_11char_traitsIcEENS7_IcEEEENS_3mapIiiNS_4lessIiEENS7_INS_4pairIKiiEEEEEEEES3_EEEEEC2B7v160006INS_18__default_init_tagESP_EEOT_OT0_, symObjAddr: 0x84A8, symBinAddr: 0x10000B580, symSize: 0x40 }
  - { offsetInCU: 0x1CC26, offset: 0x1CC26, size: 0x8, addend: 0x0, symName: __ZNSt3__122__compressed_pair_elemINS_9allocatorINS_11__tree_nodeINS_12__value_typeINS_12basic_stringIcNS_11char_traitsIcEENS1_IcEEEENS_3mapIiiNS_4lessIiEENS1_INS_4pairIKiiEEEEEEEEPvEEEELi1ELb1EEC2B7v160006ISK_vEEOT_, symObjAddr: 0x84E8, symBinAddr: 0x10000B5C0, symSize: 0x18 }
  - { offsetInCU: 0x1CC68, offset: 0x1CC68, size: 0x8, addend: 0x0, symName: __ZNKSt3__117__compressed_pairImNS_19__map_value_compareINS_12basic_stringIcNS_11char_traitsIcEENS_9allocatorIcEEEENS_12__value_typeIS7_NS_3mapIiiNS_4lessIiEENS5_INS_4pairIKiiEEEEEEEENSA_IS7_EELb1EEEE6secondB7v160006Ev, symObjAddr: 0x8500, symBinAddr: 0x10000B5D8, symSize: 0x24 }
  - { offsetInCU: 0x1CC8E, offset: 0x1CC8E, size: 0x8, addend: 0x0, symName: __ZNKSt3__122__compressed_pair_elemINS_19__map_value_compareINS_12basic_stringIcNS_11char_traitsIcEENS_9allocatorIcEEEENS_12__value_typeIS7_NS_3mapIiiNS_4lessIiEENS5_INS_4pairIKiiEEEEEEEENSA_IS7_EELb1EEELi1ELb1EE5__getB7v160006Ev, symObjAddr: 0x8524, symBinAddr: 0x10000B5FC, symSize: 0x14 }
  - { offsetInCU: 0x1CCB4, offset: 0x1CCB4, size: 0x8, addend: 0x0, symName: __ZNKSt3__120__map_const_iteratorINS_21__tree_const_iteratorINS_12__value_typeINS_12basic_stringIcNS_11char_traitsIcEENS_9allocatorIcEEEENS_3mapIiiNS_4lessIiEENS6_INS_4pairIKiiEEEEEEEEPNS_11__tree_nodeISH_PvEElEEEdeB7v160006Ev, symObjAddr: 0x8568, symBinAddr: 0x10000B640, symSize: 0x28 }
  - { offsetInCU: 0x1CCDA, offset: 0x1CCDA, size: 0x8, addend: 0x0, symName: __ZNSt3__120__map_const_iteratorINS_21__tree_const_iteratorINS_12__value_typeINS_12basic_stringIcNS_11char_traitsIcEENS_9allocatorIcEEEENS_3mapIiiNS_4lessIiEENS6_INS_4pairIKiiEEEEEEEEPNS_11__tree_nodeISH_PvEElEEEppB7v160006Ev, symObjAddr: 0x8590, symBinAddr: 0x10000B668, symSize: 0x2C }
  - { offsetInCU: 0x1CD00, offset: 0x1CD00, size: 0x8, addend: 0x0, symName: __ZNKSt3__121__tree_const_iteratorINS_12__value_typeINS_12basic_stringIcNS_11char_traitsIcEENS_9allocatorIcEEEENS_3mapIiiNS_4lessIiEENS5_INS_4pairIKiiEEEEEEEEPNS_11__tree_nodeISG_PvEElEptB7v160006Ev, symObjAddr: 0x85F0, symBinAddr: 0x10000B6C8, symSize: 0x2C }
  - { offsetInCU: 0x1CD26, offset: 0x1CD26, size: 0x8, addend: 0x0, symName: __ZNSt3__114pointer_traitsIPKNS_12__value_typeINS_12basic_stringIcNS_11char_traitsIcEENS_9allocatorIcEEEENS_3mapIiiNS_4lessIiEENS5_INS_4pairIKiiEEEEEEEEE10pointer_toB7v160006ERSH_, symObjAddr: 0x861C, symBinAddr: 0x10000B6F4, symSize: 0x14 }
  - { offsetInCU: 0x1CD49, offset: 0x1CD49, size: 0x8, addend: 0x0, symName: __ZNKSt3__16__treeINS_12__value_typeINS_12basic_stringIcNS_11char_traitsIcEENS_9allocatorIcEEEENS_3mapIiiNS_4lessIiEENS5_INS_4pairIKiiEEEEEEEENS_19__map_value_compareIS7_SG_NS9_IS7_EELb1EEENS5_ISG_EEE5beginB7v160006Ev, symObjAddr: 0x8630, symBinAddr: 0x10000B708, symSize: 0x34 }
  - { offsetInCU: 0x1CD6F, offset: 0x1CD6F, size: 0x8, addend: 0x0, symName: __ZNKSt3__16__treeINS_12__value_typeINS_12basic_stringIcNS_11char_traitsIcEENS_9allocatorIcEEEENS_3mapIiiNS_4lessIiEENS5_INS_4pairIKiiEEEEEEEENS_19__map_value_compareIS7_SG_NS9_IS7_EELb1EEENS5_ISG_EEE12__begin_nodeB7v160006Ev, symObjAddr: 0x8664, symBinAddr: 0x10000B73C, symSize: 0x14 }
  - { offsetInCU: 0x1CD95, offset: 0x1CD95, size: 0x8, addend: 0x0, symName: __ZNSt3__13mapINS_12basic_stringIcNS_11char_traitsIcEENS_9allocatorIcEEEENS0_IS6_NS0_IiiNS_4lessIiEENS4_INS_4pairIKiiEEEEEENS7_IS6_EENS4_INS9_IKS6_SD_EEEEEESE_NS4_INS9_ISF_SI_EEEEEC2B7v160006ESt16initializer_listISJ_ERKSE_, symObjAddr: 0x8678, symBinAddr: 0x10000B750, symSize: 0xA4 }
  - { offsetInCU: 0x1CDDD, offset: 0x1CDDD, size: 0x8, addend: 0x0, symName: __ZNSt3__119__map_value_compareINS_12basic_stringIcNS_11char_traitsIcEENS_9allocatorIcEEEENS_12__value_typeIS6_NS_3mapIS6_NS8_IiiNS_4lessIiEENS4_INS_4pairIKiiEEEEEENS9_IS6_EENS4_INSB_IKS6_SF_EEEEEEEESG_Lb1EEC1B7v160006ESG_, symObjAddr: 0x871C, symBinAddr: 0x10000B7F4, symSize: 0x2C }
  - { offsetInCU: 0x1CE16, offset: 0x1CE16, size: 0x8, addend: 0x0, symName: __ZNSt3__16__treeINS_12__value_typeINS_12basic_stringIcNS_11char_traitsIcEENS_9allocatorIcEEEENS_3mapIS7_NS8_IiiNS_4lessIiEENS5_INS_4pairIKiiEEEEEENS9_IS7_EENS5_INSB_IKS7_SF_EEEEEEEENS_19__map_value_compareIS7_SL_SG_Lb1EEENS5_ISL_EEEC1ERKSN_, symObjAddr: 0x8748, symBinAddr: 0x10000B820, symSize: 0x34 }
  - { offsetInCU: 0x1CE51, offset: 0x1CE51, size: 0x8, addend: 0x0, symName: __ZNSt3__13mapINS_12basic_stringIcNS_11char_traitsIcEENS_9allocatorIcEEEENS0_IS6_NS0_IiiNS_4lessIiEENS4_INS_4pairIKiiEEEEEENS7_IS6_EENS4_INS9_IKS6_SD_EEEEEESE_NS4_INS9_ISF_SI_EEEEE6insertB7v160006IPKSJ_EEvT_SP_, symObjAddr: 0x877C, symBinAddr: 0x10000B854, symSize: 0x8C }
  - { offsetInCU: 0x1CEBB, offset: 0x1CEBB, size: 0x8, addend: 0x0, symName: __ZNKSt16initializer_listINSt3__14pairIKNS0_12basic_stringIcNS0_11char_traitsIcEENS0_9allocatorIcEEEENS0_3mapIS7_NS9_IiiNS0_4lessIiEENS5_INS1_IKiiEEEEEENSA_IS7_EENS5_INS1_IS8_SF_EEEEEEEEE5beginB7v160006Ev, symObjAddr: 0x8808, symBinAddr: 0x10000B8E0, symSize: 0x18 }
  - { offsetInCU: 0x1CEE1, offset: 0x1CEE1, size: 0x8, addend: 0x0, symName: __ZNKSt16initializer_listINSt3__14pairIKNS0_12basic_stringIcNS0_11char_traitsIcEENS0_9allocatorIcEEEENS0_3mapIS7_NS9_IiiNS0_4lessIiEENS5_INS1_IKiiEEEEEENSA_IS7_EENS5_INS1_IS8_SF_EEEEEEEEE3endB7v160006Ev, symObjAddr: 0x8820, symBinAddr: 0x10000B8F8, symSize: 0x28 }
  - { offsetInCU: 0x1CF07, offset: 0x1CF07, size: 0x8, addend: 0x0, symName: __ZNSt3__16__treeINS_12__value_typeINS_12basic_stringIcNS_11char_traitsIcEENS_9allocatorIcEEEENS_3mapIS7_NS8_IiiNS_4lessIiEENS5_INS_4pairIKiiEEEEEENS9_IS7_EENS5_INSB_IKS7_SF_EEEEEEEENS_19__map_value_compareIS7_SL_SG_Lb1EEENS5_ISL_EEED1Ev, symObjAddr: 0x8848, symBinAddr: 0x10000B920, symSize: 0x2C }
  - { offsetInCU: 0x1CF33, offset: 0x1CF33, size: 0x8, addend: 0x0, symName: __ZNSt3__119__map_value_compareINS_12basic_stringIcNS_11char_traitsIcEENS_9allocatorIcEEEENS_12__value_typeIS6_NS_3mapIS6_NS8_IiiNS_4lessIiEENS4_INS_4pairIKiiEEEEEENS9_IS6_EENS4_INSB_IKS6_SF_EEEEEEEESG_Lb1EEC2B7v160006ESG_, symObjAddr: 0x8874, symBinAddr: 0x10000B94C, symSize: 0x14 }
  - { offsetInCU: 0x1CF6C, offset: 0x1CF6C, size: 0x8, addend: 0x0, symName: __ZNSt3__16__treeINS_12__value_typeINS_12basic_stringIcNS_11char_traitsIcEENS_9allocatorIcEEEENS_3mapIS7_NS8_IiiNS_4lessIiEENS5_INS_4pairIKiiEEEEEENS9_IS7_EENS5_INSB_IKS7_SF_EEEEEEEENS_19__map_value_compareIS7_SL_SG_Lb1EEENS5_ISL_EEEC2ERKSN_, symObjAddr: 0x8888, symBinAddr: 0x10000B960, symSize: 0x7C }
  - { offsetInCU: 0x1CFA7, offset: 0x1CFA7, size: 0x8, addend: 0x0, symName: __ZNSt3__117__compressed_pairINS_15__tree_end_nodeIPNS_16__tree_node_baseIPvEEEENS_9allocatorINS_11__tree_nodeINS_12__value_typeINS_12basic_stringIcNS_11char_traitsIcEENS7_IcEEEENS_3mapISE_NSF_IiiNS_4lessIiEENS7_INS_4pairIKiiEEEEEENSG_ISE_EENS7_INSI_IKSE_SM_EEEEEEEES3_EEEEEC1B7v160006ILb1EvEEv, symObjAddr: 0x8904, symBinAddr: 0x10000B9DC, symSize: 0x2C }
  - { offsetInCU: 0x1CFDC, offset: 0x1CFDC, size: 0x8, addend: 0x0, symName: __ZNSt3__117__compressed_pairImNS_19__map_value_compareINS_12basic_stringIcNS_11char_traitsIcEENS_9allocatorIcEEEENS_12__value_typeIS7_NS_3mapIS7_NS9_IiiNS_4lessIiEENS5_INS_4pairIKiiEEEEEENSA_IS7_EENS5_INSC_IKS7_SG_EEEEEEEESH_Lb1EEEEC1B7v160006IiRKSN_EEOT_OT0_, symObjAddr: 0x8930, symBinAddr: 0x10000BA08, symSize: 0x3C }
  - { offsetInCU: 0x1D034, offset: 0x1D034, size: 0x8, addend: 0x0, symName: __ZNSt3__16__treeINS_12__value_typeINS_12basic_stringIcNS_11char_traitsIcEENS_9allocatorIcEEEENS_3mapIS7_NS8_IiiNS_4lessIiEENS5_INS_4pairIKiiEEEEEENS9_IS7_EENS5_INSB_IKS7_SF_EEEEEEEENS_19__map_value_compareIS7_SL_SG_Lb1EEENS5_ISL_EEE10__end_nodeB7v160006Ev, symObjAddr: 0x896C, symBinAddr: 0x10000BA44, symSize: 0x2C }
  - { offsetInCU: 0x1D05A, offset: 0x1D05A, size: 0x8, addend: 0x0, symName: __ZNSt3__16__treeINS_12__value_typeINS_12basic_stringIcNS_11char_traitsIcEENS_9allocatorIcEEEENS_3mapIS7_NS8_IiiNS_4lessIiEENS5_INS_4pairIKiiEEEEEENS9_IS7_EENS5_INSB_IKS7_SF_EEEEEEEENS_19__map_value_compareIS7_SL_SG_Lb1EEENS5_ISL_EEE12__begin_nodeB7v160006Ev, symObjAddr: 0x8998, symBinAddr: 0x10000BA70, symSize: 0x14 }
  - { offsetInCU: 0x1D080, offset: 0x1D080, size: 0x8, addend: 0x0, symName: __ZNSt3__117__compressed_pairINS_15__tree_end_nodeIPNS_16__tree_node_baseIPvEEEENS_9allocatorINS_11__tree_nodeINS_12__value_typeINS_12basic_stringIcNS_11char_traitsIcEENS7_IcEEEENS_3mapISE_NSF_IiiNS_4lessIiEENS7_INS_4pairIKiiEEEEEENSG_ISE_EENS7_INSI_IKSE_SM_EEEEEEEES3_EEEEEC2B7v160006ILb1EvEEv, symObjAddr: 0x89AC, symBinAddr: 0x10000BA84, symSize: 0x34 }
  - { offsetInCU: 0x1D0B5, offset: 0x1D0B5, size: 0x8, addend: 0x0, symName: __ZNSt3__122__compressed_pair_elemINS_9allocatorINS_11__tree_nodeINS_12__value_typeINS_12basic_stringIcNS_11char_traitsIcEENS1_IcEEEENS_3mapIS8_NS9_IiiNS_4lessIiEENS1_INS_4pairIKiiEEEEEENSA_IS8_EENS1_INSC_IKS8_SG_EEEEEEEEPvEEEELi1ELb1EEC2B7v160006ENS_16__value_init_tagE, symObjAddr: 0x89E0, symBinAddr: 0x10000BAB8, symSize: 0x2C }
  - { offsetInCU: 0x1D0E9, offset: 0x1D0E9, size: 0x8, addend: 0x0, symName: __ZNSt3__19allocatorINS_11__tree_nodeINS_12__value_typeINS_12basic_stringIcNS_11char_traitsIcEENS0_IcEEEENS_3mapIS7_NS8_IiiNS_4lessIiEENS0_INS_4pairIKiiEEEEEENS9_IS7_EENS0_INSB_IKS7_SF_EEEEEEEEPvEEEC2B7v160006Ev, symObjAddr: 0x8A0C, symBinAddr: 0x10000BAE4, symSize: 0x2C }
  - { offsetInCU: 0x1D113, offset: 0x1D113, size: 0x8, addend: 0x0, symName: __ZNSt3__116__non_trivial_ifILb1ENS_9allocatorINS_11__tree_nodeINS_12__value_typeINS_12basic_stringIcNS_11char_traitsIcEENS1_IcEEEENS_3mapIS8_NS9_IiiNS_4lessIiEENS1_INS_4pairIKiiEEEEEENSA_IS8_EENS1_INSC_IKS8_SG_EEEEEEEEPvEEEEEC2B7v160006Ev, symObjAddr: 0x8A38, symBinAddr: 0x10000BB10, symSize: 0x14 }
  - { offsetInCU: 0x1D13D, offset: 0x1D13D, size: 0x8, addend: 0x0, symName: __ZNSt3__117__compressed_pairImNS_19__map_value_compareINS_12basic_stringIcNS_11char_traitsIcEENS_9allocatorIcEEEENS_12__value_typeIS7_NS_3mapIS7_NS9_IiiNS_4lessIiEENS5_INS_4pairIKiiEEEEEENSA_IS7_EENS5_INSC_IKS7_SG_EEEEEEEESH_Lb1EEEEC2B7v160006IiRKSN_EEOT_OT0_, symObjAddr: 0x8A4C, symBinAddr: 0x10000BB24, symSize: 0x44 }
  - { offsetInCU: 0x1D195, offset: 0x1D195, size: 0x8, addend: 0x0, symName: __ZNSt3__122__compressed_pair_elemINS_19__map_value_compareINS_12basic_stringIcNS_11char_traitsIcEENS_9allocatorIcEEEENS_12__value_typeIS7_NS_3mapIS7_NS9_IiiNS_4lessIiEENS5_INS_4pairIKiiEEEEEENSA_IS7_EENS5_INSC_IKS7_SG_EEEEEEEESH_Lb1EEELi1ELb1EEC2B7v160006IRKSN_vEEOT_, symObjAddr: 0x8A90, symBinAddr: 0x10000BB68, symSize: 0x18 }
  - { offsetInCU: 0x1D1D7, offset: 0x1D1D7, size: 0x8, addend: 0x0, symName: __ZNSt3__117__compressed_pairINS_15__tree_end_nodeIPNS_16__tree_node_baseIPvEEEENS_9allocatorINS_11__tree_nodeINS_12__value_typeINS_12basic_stringIcNS_11char_traitsIcEENS7_IcEEEENS_3mapISE_NSF_IiiNS_4lessIiEENS7_INS_4pairIKiiEEEEEENSG_ISE_EENS7_INSI_IKSE_SM_EEEEEEEES3_EEEEE5firstB7v160006Ev, symObjAddr: 0x8AA8, symBinAddr: 0x10000BB80, symSize: 0x24 }
  - { offsetInCU: 0x1D1FD, offset: 0x1D1FD, size: 0x8, addend: 0x0, symName: __ZNKSt3__13mapINS_12basic_stringIcNS_11char_traitsIcEENS_9allocatorIcEEEENS0_IS6_NS0_IiiNS_4lessIiEENS4_INS_4pairIKiiEEEEEENS7_IS6_EENS4_INS9_IKS6_SD_EEEEEESE_NS4_INS9_ISF_SI_EEEEE4cendB7v160006Ev, symObjAddr: 0x8ACC, symBinAddr: 0x10000BBA4, symSize: 0x2C }
  - { offsetInCU: 0x1D223, offset: 0x1D223, size: 0x8, addend: 0x0, symName: __ZNSt3__13mapINS_12basic_stringIcNS_11char_traitsIcEENS_9allocatorIcEEEENS0_IS6_NS0_IiiNS_4lessIiEENS4_INS_4pairIKiiEEEEEENS7_IS6_EENS4_INS9_IKS6_SD_EEEEEESE_NS4_INS9_ISF_SI_EEEEE6insertB7v160006ENS_20__map_const_iteratorINS_21__tree_const_iteratorINS_12__value_typeIS6_SI_EEPNS_11__tree_nodeISP_PvEElEEEERKSJ_, symObjAddr: 0x8AF8, symBinAddr: 0x10000BBD0, symSize: 0x50 }
  - { offsetInCU: 0x1D267, offset: 0x1D267, size: 0x8, addend: 0x0, symName: __ZNSt3__120__map_const_iteratorINS_21__tree_const_iteratorINS_12__value_typeINS_12basic_stringIcNS_11char_traitsIcEENS_9allocatorIcEEEENS_3mapIS8_NS9_IiiNS_4lessIiEENS6_INS_4pairIKiiEEEEEENSA_IS8_EENS6_INSC_IKS8_SG_EEEEEEEEPNS_11__tree_nodeISM_PvEElEEEC1B7v160006ESR_, symObjAddr: 0x8B48, symBinAddr: 0x10000BC20, symSize: 0x34 }
  - { offsetInCU: 0x1D2A0, offset: 0x1D2A0, size: 0x8, addend: 0x0, symName: __ZNKSt3__13mapINS_12basic_stringIcNS_11char_traitsIcEENS_9allocatorIcEEEENS0_IS6_NS0_IiiNS_4lessIiEENS4_INS_4pairIKiiEEEEEENS7_IS6_EENS4_INS9_IKS6_SD_EEEEEESE_NS4_INS9_ISF_SI_EEEEE3endB7v160006Ev, symObjAddr: 0x8B7C, symBinAddr: 0x10000BC54, symSize: 0x38 }
  - { offsetInCU: 0x1D2C6, offset: 0x1D2C6, size: 0x8, addend: 0x0, symName: __ZNKSt3__16__treeINS_12__value_typeINS_12basic_stringIcNS_11char_traitsIcEENS_9allocatorIcEEEENS_3mapIS7_NS8_IiiNS_4lessIiEENS5_INS_4pairIKiiEEEEEENS9_IS7_EENS5_INSB_IKS7_SF_EEEEEEEENS_19__map_value_compareIS7_SL_SG_Lb1EEENS5_ISL_EEE3endB7v160006Ev, symObjAddr: 0x8BB4, symBinAddr: 0x10000BC8C, symSize: 0x34 }
  - { offsetInCU: 0x1D2EC, offset: 0x1D2EC, size: 0x8, addend: 0x0, symName: __ZNKSt3__16__treeINS_12__value_typeINS_12basic_stringIcNS_11char_traitsIcEENS_9allocatorIcEEEENS_3mapIS7_NS8_IiiNS_4lessIiEENS5_INS_4pairIKiiEEEEEENS9_IS7_EENS5_INSB_IKS7_SF_EEEEEEEENS_19__map_value_compareIS7_SL_SG_Lb1EEENS5_ISL_EEE10__end_nodeB7v160006Ev, symObjAddr: 0x8BE8, symBinAddr: 0x10000BCC0, symSize: 0x2C }
  - { offsetInCU: 0x1D312, offset: 0x1D312, size: 0x8, addend: 0x0, symName: __ZNSt3__121__tree_const_iteratorINS_12__value_typeINS_12basic_stringIcNS_11char_traitsIcEENS_9allocatorIcEEEENS_3mapIS7_NS8_IiiNS_4lessIiEENS5_INS_4pairIKiiEEEEEENS9_IS7_EENS5_INSB_IKS7_SF_EEEEEEEEPNS_11__tree_nodeISL_PvEElEC1B7v160006EPNS_15__tree_end_nodeIPNS_16__tree_node_baseISN_EEEE, symObjAddr: 0x8C14, symBinAddr: 0x10000BCEC, symSize: 0x34 }
  - { offsetInCU: 0x1D34B, offset: 0x1D34B, size: 0x8, addend: 0x0, symName: __ZNKSt3__117__compressed_pairINS_15__tree_end_nodeIPNS_16__tree_node_baseIPvEEEENS_9allocatorINS_11__tree_nodeINS_12__value_typeINS_12basic_stringIcNS_11char_traitsIcEENS7_IcEEEENS_3mapISE_NSF_IiiNS_4lessIiEENS7_INS_4pairIKiiEEEEEENSG_ISE_EENS7_INSI_IKSE_SM_EEEEEEEES3_EEEEE5firstB7v160006Ev, symObjAddr: 0x8C48, symBinAddr: 0x10000BD20, symSize: 0x24 }
  - { offsetInCU: 0x1D371, offset: 0x1D371, size: 0x8, addend: 0x0, symName: __ZNSt3__121__tree_const_iteratorINS_12__value_typeINS_12basic_stringIcNS_11char_traitsIcEENS_9allocatorIcEEEENS_3mapIS7_NS8_IiiNS_4lessIiEENS5_INS_4pairIKiiEEEEEENS9_IS7_EENS5_INSB_IKS7_SF_EEEEEEEEPNS_11__tree_nodeISL_PvEElEC2B7v160006EPNS_15__tree_end_nodeIPNS_16__tree_node_baseISN_EEEE, symObjAddr: 0x8C6C, symBinAddr: 0x10000BD44, symSize: 0x20 }
  - { offsetInCU: 0x1D3AA, offset: 0x1D3AA, size: 0x8, addend: 0x0, symName: __ZNSt3__16__treeINS_12__value_typeINS_12basic_stringIcNS_11char_traitsIcEENS_9allocatorIcEEEENS_3mapIS7_NS8_IiiNS_4lessIiEENS5_INS_4pairIKiiEEEEEENS9_IS7_EENS5_INSB_IKS7_SF_EEEEEEEENS_19__map_value_compareIS7_SL_SG_Lb1EEENS5_ISL_EEE15__insert_uniqueB7v160006ENS_21__tree_const_iteratorISL_PNS_11__tree_nodeISL_PvEElEERKNSB_ISH_SK_EE, symObjAddr: 0x8C8C, symBinAddr: 0x10000BD64, symSize: 0x64 }
  - { offsetInCU: 0x1D3EE, offset: 0x1D3EE, size: 0x8, addend: 0x0, symName: __ZNSt3__114__map_iteratorINS_15__tree_iteratorINS_12__value_typeINS_12basic_stringIcNS_11char_traitsIcEENS_9allocatorIcEEEENS_3mapIS8_NS9_IiiNS_4lessIiEENS6_INS_4pairIKiiEEEEEENSA_IS8_EENS6_INSC_IKS8_SG_EEEEEEEEPNS_11__tree_nodeISM_PvEElEEEC1B7v160006ESR_, symObjAddr: 0x8CF0, symBinAddr: 0x10000BDC8, symSize: 0x34 }
  - { offsetInCU: 0x1D427, offset: 0x1D427, size: 0x8, addend: 0x0, symName: __ZNSt3__16__treeINS_12__value_typeINS_12basic_stringIcNS_11char_traitsIcEENS_9allocatorIcEEEENS_3mapIS7_NS8_IiiNS_4lessIiEENS5_INS_4pairIKiiEEEEEENS9_IS7_EENS5_INSB_IKS7_SF_EEEEEEEENS_19__map_value_compareIS7_SL_SG_Lb1EEENS5_ISL_EEE30__emplace_hint_unique_key_argsIS7_JRKNSB_ISH_SK_EEEEENSB_INS_15__tree_iteratorISL_PNS_11__tree_nodeISL_PvEElEEbEENS_21__tree_const_iteratorISL_SY_lEERKT_DpOT0_, symObjAddr: 0x8D24, symBinAddr: 0x10000BDFC, symSize: 0x104 }
  - { offsetInCU: 0x1D4F3, offset: 0x1D4F3, size: 0x8, addend: 0x0, symName: __ZNSt3__122__tree_key_value_typesINS_12__value_typeINS_12basic_stringIcNS_11char_traitsIcEENS_9allocatorIcEEEENS_3mapIS7_NS8_IiiNS_4lessIiEENS5_INS_4pairIKiiEEEEEENS9_IS7_EENS5_INSB_IKS7_SF_EEEEEEEEE9__get_keyB7v160006IKNSB_ISH_SK_EEEENS_9enable_ifIXsr17__is_same_uncvrefIT_SO_EE5valueERSH_E4typeERSR_, symObjAddr: 0x8E28, symBinAddr: 0x10000BF00, symSize: 0x14 }
  - { offsetInCU: 0x1D520, offset: 0x1D520, size: 0x8, addend: 0x0, symName: __ZNSt3__16__treeINS_12__value_typeINS_12basic_stringIcNS_11char_traitsIcEENS_9allocatorIcEEEENS_3mapIS7_NS8_IiiNS_4lessIiEENS5_INS_4pairIKiiEEEEEENS9_IS7_EENS5_INSB_IKS7_SF_EEEEEEEENS_19__map_value_compareIS7_SL_SG_Lb1EEENS5_ISL_EEE12__find_equalIS7_EERPNS_16__tree_node_baseIPvEENS_21__tree_const_iteratorISL_PNS_11__tree_nodeISL_SS_EElEERPNS_15__tree_end_nodeISU_EESV_RKT_, symObjAddr: 0x8E3C, symBinAddr: 0x10000BF14, symSize: 0x304 }
  - { offsetInCU: 0x1D5C9, offset: 0x1D5C9, size: 0x8, addend: 0x0, symName: __ZNSt3__16__treeINS_12__value_typeINS_12basic_stringIcNS_11char_traitsIcEENS_9allocatorIcEEEENS_3mapIS7_NS8_IiiNS_4lessIiEENS5_INS_4pairIKiiEEEEEENS9_IS7_EENS5_INSB_IKS7_SF_EEEEEEEENS_19__map_value_compareIS7_SL_SG_Lb1EEENS5_ISL_EEE16__construct_nodeIJRKNSB_ISH_SK_EEEEENS_10unique_ptrINS_11__tree_nodeISL_PvEENS_22__tree_node_destructorINS5_ISX_EEEEEEDpOT_, symObjAddr: 0x9140, symBinAddr: 0x10000C218, symSize: 0x110 }
  - { offsetInCU: 0x1D62A, offset: 0x1D62A, size: 0x8, addend: 0x0, symName: __ZNSt3__16__treeINS_12__value_typeINS_12basic_stringIcNS_11char_traitsIcEENS_9allocatorIcEEEENS_3mapIS7_NS8_IiiNS_4lessIiEENS5_INS_4pairIKiiEEEEEENS9_IS7_EENS5_INSB_IKS7_SF_EEEEEEEENS_19__map_value_compareIS7_SL_SG_Lb1EEENS5_ISL_EEE16__insert_node_atEPNS_15__tree_end_nodeIPNS_16__tree_node_baseIPvEEEERSU_SU_, symObjAddr: 0x9250, symBinAddr: 0x10000C328, symSize: 0xCC }
  - { offsetInCU: 0x1D67F, offset: 0x1D67F, size: 0x8, addend: 0x0, symName: __ZNKSt3__110unique_ptrINS_11__tree_nodeINS_12__value_typeINS_12basic_stringIcNS_11char_traitsIcEENS_9allocatorIcEEEENS_3mapIS8_NS9_IiiNS_4lessIiEENS6_INS_4pairIKiiEEEEEENSA_IS8_EENS6_INSC_IKS8_SG_EEEEEEEEPvEENS_22__tree_node_destructorINS6_ISO_EEEEE3getB7v160006Ev, symObjAddr: 0x931C, symBinAddr: 0x10000C3F4, symSize: 0x28 }
  - { offsetInCU: 0x1D6A5, offset: 0x1D6A5, size: 0x8, addend: 0x0, symName: __ZNSt3__110unique_ptrINS_11__tree_nodeINS_12__value_typeINS_12basic_stringIcNS_11char_traitsIcEENS_9allocatorIcEEEENS_3mapIS8_NS9_IiiNS_4lessIiEENS6_INS_4pairIKiiEEEEEENSA_IS8_EENS6_INSC_IKS8_SG_EEEEEEEEPvEENS_22__tree_node_destructorINS6_ISO_EEEEE7releaseB7v160006Ev, symObjAddr: 0x9344, symBinAddr: 0x10000C41C, symSize: 0x44 }
  - { offsetInCU: 0x1D6DA, offset: 0x1D6DA, size: 0x8, addend: 0x0, symName: __ZNSt3__110unique_ptrINS_11__tree_nodeINS_12__value_typeINS_12basic_stringIcNS_11char_traitsIcEENS_9allocatorIcEEEENS_3mapIS8_NS9_IiiNS_4lessIiEENS6_INS_4pairIKiiEEEEEENSA_IS8_EENS6_INSC_IKS8_SG_EEEEEEEEPvEENS_22__tree_node_destructorINS6_ISO_EEEEED1B7v160006Ev, symObjAddr: 0x9388, symBinAddr: 0x10000C460, symSize: 0x2C }
  - { offsetInCU: 0x1D704, offset: 0x1D704, size: 0x8, addend: 0x0, symName: __ZNSt3__115__tree_iteratorINS_12__value_typeINS_12basic_stringIcNS_11char_traitsIcEENS_9allocatorIcEEEENS_3mapIS7_NS8_IiiNS_4lessIiEENS5_INS_4pairIKiiEEEEEENS9_IS7_EENS5_INSB_IKS7_SF_EEEEEEEEPNS_11__tree_nodeISL_PvEElEC1B7v160006ESP_, symObjAddr: 0x93B4, symBinAddr: 0x10000C48C, symSize: 0x34 }
  - { offsetInCU: 0x1D743, offset: 0x1D743, size: 0x8, addend: 0x0, symName: __ZNSt3__14pairINS_15__tree_iteratorINS_12__value_typeINS_12basic_stringIcNS_11char_traitsIcEENS_9allocatorIcEEEENS_3mapIS8_NS9_IiiNS_4lessIiEENS6_INS0_IKiiEEEEEENSA_IS8_EENS6_INS0_IKS8_SF_EEEEEEEEPNS_11__tree_nodeISL_PvEElEEbEC1B7v160006ISQ_RbLSN_0EEEOT_OT0_, symObjAddr: 0x93E8, symBinAddr: 0x10000C4C0, symSize: 0x3C }
  - { offsetInCU: 0x1D7A1, offset: 0x1D7A1, size: 0x8, addend: 0x0, symName: __ZNSt3__16__treeINS_12__value_typeINS_12basic_stringIcNS_11char_traitsIcEENS_9allocatorIcEEEENS_3mapIS7_NS8_IiiNS_4lessIiEENS5_INS_4pairIKiiEEEEEENS9_IS7_EENS5_INSB_IKS7_SF_EEEEEEEENS_19__map_value_compareIS7_SL_SG_Lb1EEENS5_ISL_EEE3endB7v160006Ev, symObjAddr: 0x9454, symBinAddr: 0x10000C52C, symSize: 0x34 }
  - { offsetInCU: 0x1D7C7, offset: 0x1D7C7, size: 0x8, addend: 0x0, symName: __ZNSt3__121__tree_const_iteratorINS_12__value_typeINS_12basic_stringIcNS_11char_traitsIcEENS_9allocatorIcEEEENS_3mapIS7_NS8_IiiNS_4lessIiEENS5_INS_4pairIKiiEEEEEENS9_IS7_EENS5_INSB_IKS7_SF_EEEEEEEEPNS_11__tree_nodeISL_PvEElEC1B7v160006ENS_15__tree_iteratorISL_SP_lEE, symObjAddr: 0x9488, symBinAddr: 0x10000C560, symSize: 0x34 }
  - { offsetInCU: 0x1D800, offset: 0x1D800, size: 0x8, addend: 0x0, symName: __ZNSt3__16__treeINS_12__value_typeINS_12basic_stringIcNS_11char_traitsIcEENS_9allocatorIcEEEENS_3mapIS7_NS8_IiiNS_4lessIiEENS5_INS_4pairIKiiEEEEEENS9_IS7_EENS5_INSB_IKS7_SF_EEEEEEEENS_19__map_value_compareIS7_SL_SG_Lb1EEENS5_ISL_EEE10value_compB7v160006Ev, symObjAddr: 0x94BC, symBinAddr: 0x10000C594, symSize: 0x28 }
  - { offsetInCU: 0x1D826, offset: 0x1D826, size: 0x8, addend: 0x0, symName: __ZNKSt3__119__map_value_compareINS_12basic_stringIcNS_11char_traitsIcEENS_9allocatorIcEEEENS_12__value_typeIS6_NS_3mapIS6_NS8_IiiNS_4lessIiEENS4_INS_4pairIKiiEEEEEENS9_IS6_EENS4_INSB_IKS6_SF_EEEEEEEESG_Lb1EEclB7v160006ERSH_RKSL_, symObjAddr: 0x94E4, symBinAddr: 0x10000C5BC, symSize: 0x50 }
  - { offsetInCU: 0x1D86A, offset: 0x1D86A, size: 0x8, addend: 0x0, symName: __ZNKSt3__121__tree_const_iteratorINS_12__value_typeINS_12basic_stringIcNS_11char_traitsIcEENS_9allocatorIcEEEENS_3mapIS7_NS8_IiiNS_4lessIiEENS5_INS_4pairIKiiEEEEEENS9_IS7_EENS5_INSB_IKS7_SF_EEEEEEEEPNS_11__tree_nodeISL_PvEElEdeB7v160006Ev, symObjAddr: 0x9534, symBinAddr: 0x10000C60C, symSize: 0x28 }
  - { offsetInCU: 0x1D890, offset: 0x1D890, size: 0x8, addend: 0x0, symName: __ZNSt3__16__treeINS_12__value_typeINS_12basic_stringIcNS_11char_traitsIcEENS_9allocatorIcEEEENS_3mapIS7_NS8_IiiNS_4lessIiEENS5_INS_4pairIKiiEEEEEENS9_IS7_EENS5_INSB_IKS7_SF_EEEEEEEENS_19__map_value_compareIS7_SL_SG_Lb1EEENS5_ISL_EEE5beginB7v160006Ev, symObjAddr: 0x955C, symBinAddr: 0x10000C634, symSize: 0x34 }
  - { offsetInCU: 0x1D8B6, offset: 0x1D8B6, size: 0x8, addend: 0x0, symName: __ZNKSt3__119__map_value_compareINS_12basic_stringIcNS_11char_traitsIcEENS_9allocatorIcEEEENS_12__value_typeIS6_NS_3mapIS6_NS8_IiiNS_4lessIiEENS4_INS_4pairIKiiEEEEEENS9_IS6_EENS4_INSB_IKS6_SF_EEEEEEEESG_Lb1EEclB7v160006ERKSL_RSH_, symObjAddr: 0x9590, symBinAddr: 0x10000C668, symSize: 0x48 }
  - { offsetInCU: 0x1D8FA, offset: 0x1D8FA, size: 0x8, addend: 0x0, symName: __ZNSt3__121__tree_const_iteratorINS_12__value_typeINS_12basic_stringIcNS_11char_traitsIcEENS_9allocatorIcEEEENS_3mapIS7_NS8_IiiNS_4lessIiEENS5_INS_4pairIKiiEEEEEENS9_IS7_EENS5_INSB_IKS7_SF_EEEEEEEEPNS_11__tree_nodeISL_PvEElEmmB7v160006Ev, symObjAddr: 0x95D8, symBinAddr: 0x10000C6B0, symSize: 0x38 }
  - { offsetInCU: 0x1D920, offset: 0x1D920, size: 0x8, addend: 0x0, symName: __ZNSt3__16__treeINS_12__value_typeINS_12basic_stringIcNS_11char_traitsIcEENS_9allocatorIcEEEENS_3mapIS7_NS8_IiiNS_4lessIiEENS5_INS_4pairIKiiEEEEEENS9_IS7_EENS5_INSB_IKS7_SF_EEEEEEEENS_19__map_value_compareIS7_SL_SG_Lb1EEENS5_ISL_EEE12__find_equalIS7_EERPNS_16__tree_node_baseIPvEERPNS_15__tree_end_nodeISU_EERKT_, symObjAddr: 0x9610, symBinAddr: 0x10000C6E8, symSize: 0x184 }
  - { offsetInCU: 0x1D98D, offset: 0x1D98D, size: 0x8, addend: 0x0, symName: __ZNKSt3__121__tree_const_iteratorINS_12__value_typeINS_12basic_stringIcNS_11char_traitsIcEENS_9allocatorIcEEEENS_3mapIS7_NS8_IiiNS_4lessIiEENS5_INS_4pairIKiiEEEEEENS9_IS7_EENS5_INSB_IKS7_SF_EEEEEEEEPNS_11__tree_nodeISL_PvEElE8__get_npB7v160006Ev, symObjAddr: 0x97E4, symBinAddr: 0x10000C8BC, symSize: 0x18 }
  - { offsetInCU: 0x1D9B3, offset: 0x1D9B3, size: 0x8, addend: 0x0, symName: __ZNSt3__115__tree_iteratorINS_12__value_typeINS_12basic_stringIcNS_11char_traitsIcEENS_9allocatorIcEEEENS_3mapIS7_NS8_IiiNS_4lessIiEENS5_INS_4pairIKiiEEEEEENS9_IS7_EENS5_INSB_IKS7_SF_EEEEEEEEPNS_11__tree_nodeISL_PvEElEC1B7v160006EPNS_15__tree_end_nodeIPNS_16__tree_node_baseISN_EEEE, symObjAddr: 0x97FC, symBinAddr: 0x10000C8D4, symSize: 0x34 }
  - { offsetInCU: 0x1D9EC, offset: 0x1D9EC, size: 0x8, addend: 0x0, symName: __ZNSt3__115__tree_iteratorINS_12__value_typeINS_12basic_stringIcNS_11char_traitsIcEENS_9allocatorIcEEEENS_3mapIS7_NS8_IiiNS_4lessIiEENS5_INS_4pairIKiiEEEEEENS9_IS7_EENS5_INSB_IKS7_SF_EEEEEEEEPNS_11__tree_nodeISL_PvEElEC2B7v160006EPNS_15__tree_end_nodeIPNS_16__tree_node_baseISN_EEEE, symObjAddr: 0x9830, symBinAddr: 0x10000C908, symSize: 0x20 }
  - { offsetInCU: 0x1DA25, offset: 0x1DA25, size: 0x8, addend: 0x0, symName: __ZNSt3__121__tree_const_iteratorINS_12__value_typeINS_12basic_stringIcNS_11char_traitsIcEENS_9allocatorIcEEEENS_3mapIS7_NS8_IiiNS_4lessIiEENS5_INS_4pairIKiiEEEEEENS9_IS7_EENS5_INSB_IKS7_SF_EEEEEEEEPNS_11__tree_nodeISL_PvEElEC2B7v160006ENS_15__tree_iteratorISL_SP_lEE, symObjAddr: 0x9850, symBinAddr: 0x10000C928, symSize: 0x20 }
  - { offsetInCU: 0x1DA5E, offset: 0x1DA5E, size: 0x8, addend: 0x0, symName: __ZNSt3__117__compressed_pairImNS_19__map_value_compareINS_12basic_stringIcNS_11char_traitsIcEENS_9allocatorIcEEEENS_12__value_typeIS7_NS_3mapIS7_NS9_IiiNS_4lessIiEENS5_INS_4pairIKiiEEEEEENSA_IS7_EENS5_INSC_IKS7_SG_EEEEEEEESH_Lb1EEEE6secondB7v160006Ev, symObjAddr: 0x9870, symBinAddr: 0x10000C948, symSize: 0x24 }
  - { offsetInCU: 0x1DA84, offset: 0x1DA84, size: 0x8, addend: 0x0, symName: __ZNSt3__122__compressed_pair_elemINS_19__map_value_compareINS_12basic_stringIcNS_11char_traitsIcEENS_9allocatorIcEEEENS_12__value_typeIS7_NS_3mapIS7_NS9_IiiNS_4lessIiEENS5_INS_4pairIKiiEEEEEENSA_IS7_EENS5_INSC_IKS7_SG_EEEEEEEESH_Lb1EEELi1ELb1EE5__getB7v160006Ev, symObjAddr: 0x9894, symBinAddr: 0x10000C96C, symSize: 0x14 }
  - { offsetInCU: 0x1DAAA, offset: 0x1DAAA, size: 0x8, addend: 0x0, symName: __ZNKSt3__112__value_typeINS_12basic_stringIcNS_11char_traitsIcEENS_9allocatorIcEEEENS_3mapIS6_NS7_IiiNS_4lessIiEENS4_INS_4pairIKiiEEEEEENS8_IS6_EENS4_INSA_IKS6_SE_EEEEEEE11__get_valueB7v160006Ev, symObjAddr: 0x98A8, symBinAddr: 0x10000C980, symSize: 0x14 }
  - { offsetInCU: 0x1DAD0, offset: 0x1DAD0, size: 0x8, addend: 0x0, symName: __ZNKSt3__16__treeINS_12__value_typeINS_12basic_stringIcNS_11char_traitsIcEENS_9allocatorIcEEEENS_3mapIS7_NS8_IiiNS_4lessIiEENS5_INS_4pairIKiiEEEEEENS9_IS7_EENS5_INSB_IKS7_SF_EEEEEEEENS_19__map_value_compareIS7_SL_SG_Lb1EEENS5_ISL_EEE6__rootB7v160006Ev, symObjAddr: 0x98BC, symBinAddr: 0x10000C994, symSize: 0x28 }
  - { offsetInCU: 0x1DAF6, offset: 0x1DAF6, size: 0x8, addend: 0x0, symName: __ZNKSt3__16__treeINS_12__value_typeINS_12basic_stringIcNS_11char_traitsIcEENS_9allocatorIcEEEENS_3mapIS7_NS8_IiiNS_4lessIiEENS5_INS_4pairIKiiEEEEEENS9_IS7_EENS5_INSB_IKS7_SF_EEEEEEEENS_19__map_value_compareIS7_SL_SG_Lb1EEENS5_ISL_EEE10__root_ptrEv, symObjAddr: 0x98E4, symBinAddr: 0x10000C9BC, symSize: 0x24 }
  - { offsetInCU: 0x1DB1C, offset: 0x1DB1C, size: 0x8, addend: 0x0, symName: __ZNSt3__121__tree_const_iteratorINS_12__value_typeINS_12basic_stringIcNS_11char_traitsIcEENS_9allocatorIcEEEENS_3mapIS7_NS8_IiiNS_4lessIiEENS5_INS_4pairIKiiEEEEEENS9_IS7_EENS5_INSB_IKS7_SF_EEEEEEEEPNS_11__tree_nodeISL_PvEElEppB7v160006Ev, symObjAddr: 0x99FC, symBinAddr: 0x10000CAD4, symSize: 0x38 }
  - { offsetInCU: 0x1DB42, offset: 0x1DB42, size: 0x8, addend: 0x0, symName: __ZNSt3__16__treeINS_12__value_typeINS_12basic_stringIcNS_11char_traitsIcEENS_9allocatorIcEEEENS_3mapIS7_NS8_IiiNS_4lessIiEENS5_INS_4pairIKiiEEEEEENS9_IS7_EENS5_INSB_IKS7_SF_EEEEEEEENS_19__map_value_compareIS7_SL_SG_Lb1EEENS5_ISL_EEE12__node_allocB7v160006Ev, symObjAddr: 0x9A34, symBinAddr: 0x10000CB0C, symSize: 0x28 }
  - { offsetInCU: 0x1DB68, offset: 0x1DB68, size: 0x8, addend: 0x0, symName: __ZNSt3__116allocator_traitsINS_9allocatorINS_11__tree_nodeINS_12__value_typeINS_12basic_stringIcNS_11char_traitsIcEENS1_IcEEEENS_3mapIS8_NS9_IiiNS_4lessIiEENS1_INS_4pairIKiiEEEEEENSA_IS8_EENS1_INSC_IKS8_SG_EEEEEEEEPvEEEEE8allocateB7v160006ERSP_m, symObjAddr: 0x9A5C, symBinAddr: 0x10000CB34, symSize: 0x2C }
  - { offsetInCU: 0x1DB9B, offset: 0x1DB9B, size: 0x8, addend: 0x0, symName: __ZNSt3__122__tree_node_destructorINS_9allocatorINS_11__tree_nodeINS_12__value_typeINS_12basic_stringIcNS_11char_traitsIcEENS1_IcEEEENS_3mapIS8_NS9_IiiNS_4lessIiEENS1_INS_4pairIKiiEEEEEENSA_IS8_EENS1_INSC_IKS8_SG_EEEEEEEEPvEEEEEC1B7v160006ERSP_b, symObjAddr: 0x9A88, symBinAddr: 0x10000CB60, symSize: 0x48 }
  - { offsetInCU: 0x1DBE9, offset: 0x1DBE9, size: 0x8, addend: 0x0, symName: __ZNSt3__110unique_ptrINS_11__tree_nodeINS_12__value_typeINS_12basic_stringIcNS_11char_traitsIcEENS_9allocatorIcEEEENS_3mapIS8_NS9_IiiNS_4lessIiEENS6_INS_4pairIKiiEEEEEENSA_IS8_EENS6_INSC_IKS8_SG_EEEEEEEEPvEENS_22__tree_node_destructorINS6_ISO_EEEEEC1B7v160006ILb1EvEEPSO_NS_16__dependent_typeINS_27__unique_ptr_deleter_sfinaeISR_EEXT_EE20__good_rval_ref_typeE, symObjAddr: 0x9AD0, symBinAddr: 0x10000CBA8, symSize: 0x3C }
  - { offsetInCU: 0x1DC3A, offset: 0x1DC3A, size: 0x8, addend: 0x0, symName: __ZNSt3__116allocator_traitsINS_9allocatorINS_11__tree_nodeINS_12__value_typeINS_12basic_stringIcNS_11char_traitsIcEENS1_IcEEEENS_3mapIS8_NS9_IiiNS_4lessIiEENS1_INS_4pairIKiiEEEEEENSA_IS8_EENS1_INSC_IKS8_SG_EEEEEEEEPvEEEEE9constructB7v160006INSC_ISI_SL_EEJRKSS_EvEEvRSP_PT_DpOT0_, symObjAddr: 0x9B0C, symBinAddr: 0x10000CBE4, symSize: 0x34 }
  - { offsetInCU: 0x1DC91, offset: 0x1DC91, size: 0x8, addend: 0x0, symName: __ZNSt3__122__tree_key_value_typesINS_12__value_typeINS_12basic_stringIcNS_11char_traitsIcEENS_9allocatorIcEEEENS_3mapIS7_NS8_IiiNS_4lessIiEENS5_INS_4pairIKiiEEEEEENS9_IS7_EENS5_INSB_IKS7_SF_EEEEEEEEE9__get_ptrB7v160006ERSL_, symObjAddr: 0x9B40, symBinAddr: 0x10000CC18, symSize: 0x24 }
  - { offsetInCU: 0x1DCB5, offset: 0x1DCB5, size: 0x8, addend: 0x0, symName: __ZNKSt3__110unique_ptrINS_11__tree_nodeINS_12__value_typeINS_12basic_stringIcNS_11char_traitsIcEENS_9allocatorIcEEEENS_3mapIS8_NS9_IiiNS_4lessIiEENS6_INS_4pairIKiiEEEEEENSA_IS8_EENS6_INSC_IKS8_SG_EEEEEEEEPvEENS_22__tree_node_destructorINS6_ISO_EEEEEptB7v160006Ev, symObjAddr: 0x9B64, symBinAddr: 0x10000CC3C, symSize: 0x28 }
  - { offsetInCU: 0x1DCDB, offset: 0x1DCDB, size: 0x8, addend: 0x0, symName: __ZNSt3__110unique_ptrINS_11__tree_nodeINS_12__value_typeINS_12basic_stringIcNS_11char_traitsIcEENS_9allocatorIcEEEENS_3mapIS8_NS9_IiiNS_4lessIiEENS6_INS_4pairIKiiEEEEEENSA_IS8_EENS6_INSC_IKS8_SG_EEEEEEEEPvEENS_22__tree_node_destructorINS6_ISO_EEEEE11get_deleterB7v160006Ev, symObjAddr: 0x9B8C, symBinAddr: 0x10000CC64, symSize: 0x24 }
  - { offsetInCU: 0x1DD01, offset: 0x1DD01, size: 0x8, addend: 0x0, symName: __ZNSt3__117__compressed_pairINS_15__tree_end_nodeIPNS_16__tree_node_baseIPvEEEENS_9allocatorINS_11__tree_nodeINS_12__value_typeINS_12basic_stringIcNS_11char_traitsIcEENS7_IcEEEENS_3mapISE_NSF_IiiNS_4lessIiEENS7_INS_4pairIKiiEEEEEENSG_ISE_EENS7_INSI_IKSE_SM_EEEEEEEES3_EEEEE6secondB7v160006Ev, symObjAddr: 0x9BB0, symBinAddr: 0x10000CC88, symSize: 0x24 }
  - { offsetInCU: 0x1DD27, offset: 0x1DD27, size: 0x8, addend: 0x0, symName: __ZNSt3__122__compressed_pair_elemINS_9allocatorINS_11__tree_nodeINS_12__value_typeINS_12basic_stringIcNS_11char_traitsIcEENS1_IcEEEENS_3mapIS8_NS9_IiiNS_4lessIiEENS1_INS_4pairIKiiEEEEEENSA_IS8_EENS1_INSC_IKS8_SG_EEEEEEEEPvEEEELi1ELb1EE5__getB7v160006Ev, symObjAddr: 0x9BD4, symBinAddr: 0x10000CCAC, symSize: 0x14 }
  - { offsetInCU: 0x1DD4D, offset: 0x1DD4D, size: 0x8, addend: 0x0, symName: __ZNSt3__19allocatorINS_11__tree_nodeINS_12__value_typeINS_12basic_stringIcNS_11char_traitsIcEENS0_IcEEEENS_3mapIS7_NS8_IiiNS_4lessIiEENS0_INS_4pairIKiiEEEEEENS9_IS7_EENS0_INSB_IKS7_SF_EEEEEEEEPvEEE8allocateB7v160006Em, symObjAddr: 0x9BE8, symBinAddr: 0x10000CCC0, symSize: 0x5C }
  - { offsetInCU: 0x1DD8C, offset: 0x1DD8C, size: 0x8, addend: 0x0, symName: __ZNSt3__116allocator_traitsINS_9allocatorINS_11__tree_nodeINS_12__value_typeINS_12basic_stringIcNS_11char_traitsIcEENS1_IcEEEENS_3mapIS8_NS9_IiiNS_4lessIiEENS1_INS_4pairIKiiEEEEEENSA_IS8_EENS1_INSC_IKS8_SG_EEEEEEEEPvEEEEE8max_sizeB7v160006ISP_vEEmRKSP_, symObjAddr: 0x9C44, symBinAddr: 0x10000CD1C, symSize: 0x24 }
  - { offsetInCU: 0x1DDBA, offset: 0x1DDBA, size: 0x8, addend: 0x0, symName: __ZNKSt3__19allocatorINS_11__tree_nodeINS_12__value_typeINS_12basic_stringIcNS_11char_traitsIcEENS0_IcEEEENS_3mapIS7_NS8_IiiNS_4lessIiEENS0_INS_4pairIKiiEEEEEENS9_IS7_EENS0_INSB_IKS7_SF_EEEEEEEEPvEEE8max_sizeB7v160006Ev, symObjAddr: 0x9C68, symBinAddr: 0x10000CD40, symSize: 0x18 }
  - { offsetInCU: 0x1DDE0, offset: 0x1DDE0, size: 0x8, addend: 0x0, symName: __ZNSt3__122__tree_node_destructorINS_9allocatorINS_11__tree_nodeINS_12__value_typeINS_12basic_stringIcNS_11char_traitsIcEENS1_IcEEEENS_3mapIS8_NS9_IiiNS_4lessIiEENS1_INS_4pairIKiiEEEEEENSA_IS8_EENS1_INSC_IKS8_SG_EEEEEEEEPvEEEEEC2B7v160006ERSP_b, symObjAddr: 0x9C80, symBinAddr: 0x10000CD58, symSize: 0x38 }
  - { offsetInCU: 0x1DE28, offset: 0x1DE28, size: 0x8, addend: 0x0, symName: __ZNSt3__110unique_ptrINS_11__tree_nodeINS_12__value_typeINS_12basic_stringIcNS_11char_traitsIcEENS_9allocatorIcEEEENS_3mapIS8_NS9_IiiNS_4lessIiEENS6_INS_4pairIKiiEEEEEENSA_IS8_EENS6_INSC_IKS8_SG_EEEEEEEEPvEENS_22__tree_node_destructorINS6_ISO_EEEEEC2B7v160006ILb1EvEEPSO_NS_16__dependent_typeINS_27__unique_ptr_deleter_sfinaeISR_EEXT_EE20__good_rval_ref_typeE, symObjAddr: 0x9CB8, symBinAddr: 0x10000CD90, symSize: 0x48 }
  - { offsetInCU: 0x1DE79, offset: 0x1DE79, size: 0x8, addend: 0x0, symName: __ZNSt3__117__compressed_pairIPNS_11__tree_nodeINS_12__value_typeINS_12basic_stringIcNS_11char_traitsIcEENS_9allocatorIcEEEENS_3mapIS8_NS9_IiiNS_4lessIiEENS6_INS_4pairIKiiEEEEEENSA_IS8_EENS6_INSC_IKS8_SG_EEEEEEEEPvEENS_22__tree_node_destructorINS6_ISO_EEEEEC1B7v160006IRSP_SS_EEOT_OT0_, symObjAddr: 0x9D00, symBinAddr: 0x10000CDD8, symSize: 0x3C }
  - { offsetInCU: 0x1DED1, offset: 0x1DED1, size: 0x8, addend: 0x0, symName: __ZNSt3__117__compressed_pairIPNS_11__tree_nodeINS_12__value_typeINS_12basic_stringIcNS_11char_traitsIcEENS_9allocatorIcEEEENS_3mapIS8_NS9_IiiNS_4lessIiEENS6_INS_4pairIKiiEEEEEENSA_IS8_EENS6_INSC_IKS8_SG_EEEEEEEEPvEENS_22__tree_node_destructorINS6_ISO_EEEEEC2B7v160006IRSP_SS_EEOT_OT0_, symObjAddr: 0x9D3C, symBinAddr: 0x10000CE14, symSize: 0x48 }
  - { offsetInCU: 0x1DF29, offset: 0x1DF29, size: 0x8, addend: 0x0, symName: __ZNSt3__122__compressed_pair_elemIPNS_11__tree_nodeINS_12__value_typeINS_12basic_stringIcNS_11char_traitsIcEENS_9allocatorIcEEEENS_3mapIS8_NS9_IiiNS_4lessIiEENS6_INS_4pairIKiiEEEEEENSA_IS8_EENS6_INSC_IKS8_SG_EEEEEEEEPvEELi0ELb0EEC2B7v160006IRSP_vEEOT_, symObjAddr: 0x9D84, symBinAddr: 0x10000CE5C, symSize: 0x24 }
  - { offsetInCU: 0x1DF6B, offset: 0x1DF6B, size: 0x8, addend: 0x0, symName: __ZNSt3__122__compressed_pair_elemINS_22__tree_node_destructorINS_9allocatorINS_11__tree_nodeINS_12__value_typeINS_12basic_stringIcNS_11char_traitsIcEENS2_IcEEEENS_3mapIS9_NSA_IiiNS_4lessIiEENS2_INS_4pairIKiiEEEEEENSB_IS9_EENS2_INSD_IKS9_SH_EEEEEEEEPvEEEEEELi1ELb0EEC2B7v160006ISR_vEEOT_, symObjAddr: 0x9DA8, symBinAddr: 0x10000CE80, symSize: 0x24 }
  - { offsetInCU: 0x1DFAD, offset: 0x1DFAD, size: 0x8, addend: 0x0, symName: __ZNSt3__19allocatorINS_11__tree_nodeINS_12__value_typeINS_12basic_stringIcNS_11char_traitsIcEENS0_IcEEEENS_3mapIS7_NS8_IiiNS_4lessIiEENS0_INS_4pairIKiiEEEEEENS9_IS7_EENS0_INSB_IKS7_SF_EEEEEEEEPvEEE9constructB7v160006INSB_ISH_SK_EEJRKSQ_EEEvPT_DpOT0_, symObjAddr: 0x9DCC, symBinAddr: 0x10000CEA4, symSize: 0x30 }
  - { offsetInCU: 0x1E003, offset: 0x1E003, size: 0x8, addend: 0x0, symName: __ZNSt3__14pairIKNS_12basic_stringIcNS_11char_traitsIcEENS_9allocatorIcEEEENS_3mapIS6_NS8_IiiNS_4lessIiEENS4_INS0_IKiiEEEEEENS9_IS6_EENS4_INS0_IS7_SE_EEEEEEEC1ERKSJ_, symObjAddr: 0x9DFC, symBinAddr: 0x10000CED4, symSize: 0x34 }
  - { offsetInCU: 0x1E037, offset: 0x1E037, size: 0x8, addend: 0x0, symName: __ZNSt3__14pairIKNS_12basic_stringIcNS_11char_traitsIcEENS_9allocatorIcEEEENS_3mapIS6_NS8_IiiNS_4lessIiEENS4_INS0_IKiiEEEEEENS9_IS6_EENS4_INS0_IS7_SE_EEEEEEEC2ERKSJ_, symObjAddr: 0x9E30, symBinAddr: 0x10000CF08, symSize: 0x70 }
  - { offsetInCU: 0x1E06B, offset: 0x1E06B, size: 0x8, addend: 0x0, symName: __ZNSt3__112__value_typeINS_12basic_stringIcNS_11char_traitsIcEENS_9allocatorIcEEEENS_3mapIS6_NS7_IiiNS_4lessIiEENS4_INS_4pairIKiiEEEEEENS8_IS6_EENS4_INSA_IKS6_SE_EEEEEEE11__get_valueB7v160006Ev, symObjAddr: 0x9EA0, symBinAddr: 0x10000CF78, symSize: 0x14 }
  - { offsetInCU: 0x1E091, offset: 0x1E091, size: 0x8, addend: 0x0, symName: __ZNKSt3__117__compressed_pairIPNS_11__tree_nodeINS_12__value_typeINS_12basic_stringIcNS_11char_traitsIcEENS_9allocatorIcEEEENS_3mapIS8_NS9_IiiNS_4lessIiEENS6_INS_4pairIKiiEEEEEENSA_IS8_EENS6_INSC_IKS8_SG_EEEEEEEEPvEENS_22__tree_node_destructorINS6_ISO_EEEEE5firstB7v160006Ev, symObjAddr: 0x9EB4, symBinAddr: 0x10000CF8C, symSize: 0x24 }
  - { offsetInCU: 0x1E0B7, offset: 0x1E0B7, size: 0x8, addend: 0x0, symName: __ZNKSt3__122__compressed_pair_elemIPNS_11__tree_nodeINS_12__value_typeINS_12basic_stringIcNS_11char_traitsIcEENS_9allocatorIcEEEENS_3mapIS8_NS9_IiiNS_4lessIiEENS6_INS_4pairIKiiEEEEEENSA_IS8_EENS6_INSC_IKS8_SG_EEEEEEEEPvEELi0ELb0EE5__getB7v160006Ev, symObjAddr: 0x9ED8, symBinAddr: 0x10000CFB0, symSize: 0x14 }
  - { offsetInCU: 0x1E0DD, offset: 0x1E0DD, size: 0x8, addend: 0x0, symName: __ZNSt3__117__compressed_pairIPNS_11__tree_nodeINS_12__value_typeINS_12basic_stringIcNS_11char_traitsIcEENS_9allocatorIcEEEENS_3mapIS8_NS9_IiiNS_4lessIiEENS6_INS_4pairIKiiEEEEEENSA_IS8_EENS6_INSC_IKS8_SG_EEEEEEEEPvEENS_22__tree_node_destructorINS6_ISO_EEEEE6secondB7v160006Ev, symObjAddr: 0x9EEC, symBinAddr: 0x10000CFC4, symSize: 0x28 }
  - { offsetInCU: 0x1E103, offset: 0x1E103, size: 0x8, addend: 0x0, symName: __ZNSt3__122__compressed_pair_elemINS_22__tree_node_destructorINS_9allocatorINS_11__tree_nodeINS_12__value_typeINS_12basic_stringIcNS_11char_traitsIcEENS2_IcEEEENS_3mapIS9_NSA_IiiNS_4lessIiEENS2_INS_4pairIKiiEEEEEENSB_IS9_EENS2_INSD_IKS9_SH_EEEEEEEEPvEEEEEELi1ELb0EE5__getB7v160006Ev, symObjAddr: 0x9F14, symBinAddr: 0x10000CFEC, symSize: 0x14 }
  - { offsetInCU: 0x1E129, offset: 0x1E129, size: 0x8, addend: 0x0, symName: __ZNSt3__16__treeINS_12__value_typeINS_12basic_stringIcNS_11char_traitsIcEENS_9allocatorIcEEEENS_3mapIS7_NS8_IiiNS_4lessIiEENS5_INS_4pairIKiiEEEEEENS9_IS7_EENS5_INSB_IKS7_SF_EEEEEEEENS_19__map_value_compareIS7_SL_SG_Lb1EEENS5_ISL_EEE4sizeB7v160006Ev, symObjAddr: 0x9F28, symBinAddr: 0x10000D000, symSize: 0x28 }
  - { offsetInCU: 0x1E14F, offset: 0x1E14F, size: 0x8, addend: 0x0, symName: __ZNSt3__117__compressed_pairImNS_19__map_value_compareINS_12basic_stringIcNS_11char_traitsIcEENS_9allocatorIcEEEENS_12__value_typeIS7_NS_3mapIS7_NS9_IiiNS_4lessIiEENS5_INS_4pairIKiiEEEEEENSA_IS7_EENS5_INSC_IKS7_SG_EEEEEEEESH_Lb1EEEE5firstB7v160006Ev, symObjAddr: 0x9F50, symBinAddr: 0x10000D028, symSize: 0x24 }
  - { offsetInCU: 0x1E175, offset: 0x1E175, size: 0x8, addend: 0x0, symName: __ZNSt3__117__compressed_pairIPNS_11__tree_nodeINS_12__value_typeINS_12basic_stringIcNS_11char_traitsIcEENS_9allocatorIcEEEENS_3mapIS8_NS9_IiiNS_4lessIiEENS6_INS_4pairIKiiEEEEEENSA_IS8_EENS6_INSC_IKS8_SG_EEEEEEEEPvEENS_22__tree_node_destructorINS6_ISO_EEEEE5firstB7v160006Ev, symObjAddr: 0x9F74, symBinAddr: 0x10000D04C, symSize: 0x24 }
  - { offsetInCU: 0x1E19B, offset: 0x1E19B, size: 0x8, addend: 0x0, symName: __ZNSt3__122__compressed_pair_elemIPNS_11__tree_nodeINS_12__value_typeINS_12basic_stringIcNS_11char_traitsIcEENS_9allocatorIcEEEENS_3mapIS8_NS9_IiiNS_4lessIiEENS6_INS_4pairIKiiEEEEEENSA_IS8_EENS6_INSC_IKS8_SG_EEEEEEEEPvEELi0ELb0EE5__getB7v160006Ev, symObjAddr: 0x9F98, symBinAddr: 0x10000D070, symSize: 0x14 }
  - { offsetInCU: 0x1E1C1, offset: 0x1E1C1, size: 0x8, addend: 0x0, symName: __ZNSt3__110unique_ptrINS_11__tree_nodeINS_12__value_typeINS_12basic_stringIcNS_11char_traitsIcEENS_9allocatorIcEEEENS_3mapIS8_NS9_IiiNS_4lessIiEENS6_INS_4pairIKiiEEEEEENSA_IS8_EENS6_INSC_IKS8_SG_EEEEEEEEPvEENS_22__tree_node_destructorINS6_ISO_EEEEED2B7v160006Ev, symObjAddr: 0x9FAC, symBinAddr: 0x10000D084, symSize: 0x30 }
  - { offsetInCU: 0x1E1EB, offset: 0x1E1EB, size: 0x8, addend: 0x0, symName: __ZNSt3__110unique_ptrINS_11__tree_nodeINS_12__value_typeINS_12basic_stringIcNS_11char_traitsIcEENS_9allocatorIcEEEENS_3mapIS8_NS9_IiiNS_4lessIiEENS6_INS_4pairIKiiEEEEEENSA_IS8_EENS6_INSC_IKS8_SG_EEEEEEEEPvEENS_22__tree_node_destructorINS6_ISO_EEEEE5resetB7v160006EPSO_, symObjAddr: 0x9FDC, symBinAddr: 0x10000D0B4, symSize: 0x78 }
  - { offsetInCU: 0x1E22F, offset: 0x1E22F, size: 0x8, addend: 0x0, symName: __ZNSt3__122__tree_node_destructorINS_9allocatorINS_11__tree_nodeINS_12__value_typeINS_12basic_stringIcNS_11char_traitsIcEENS1_IcEEEENS_3mapIS8_NS9_IiiNS_4lessIiEENS1_INS_4pairIKiiEEEEEENSA_IS8_EENS1_INSC_IKS8_SG_EEEEEEEEPvEEEEEclB7v160006EPSO_, symObjAddr: 0xA054, symBinAddr: 0x10000D12C, symSize: 0x98 }
  - { offsetInCU: 0x1E264, offset: 0x1E264, size: 0x8, addend: 0x0, symName: __ZNSt3__116allocator_traitsINS_9allocatorINS_11__tree_nodeINS_12__value_typeINS_12basic_stringIcNS_11char_traitsIcEENS1_IcEEEENS_3mapIS8_NS9_IiiNS_4lessIiEENS1_INS_4pairIKiiEEEEEENSA_IS8_EENS1_INSC_IKS8_SG_EEEEEEEEPvEEEEE7destroyB7v160006INSC_ISI_SL_EEvvEEvRSP_PT_, symObjAddr: 0xA0EC, symBinAddr: 0x10000D1C4, symSize: 0x28 }
  - { offsetInCU: 0x1E29F, offset: 0x1E29F, size: 0x8, addend: 0x0, symName: __ZNSt3__116allocator_traitsINS_9allocatorINS_11__tree_nodeINS_12__value_typeINS_12basic_stringIcNS_11char_traitsIcEENS1_IcEEEENS_3mapIS8_NS9_IiiNS_4lessIiEENS1_INS_4pairIKiiEEEEEENSA_IS8_EENS1_INSC_IKS8_SG_EEEEEEEEPvEEEEE10deallocateB7v160006ERSP_PSO_m, symObjAddr: 0xA114, symBinAddr: 0x10000D1EC, symSize: 0x34 }
  - { offsetInCU: 0x1E2E1, offset: 0x1E2E1, size: 0x8, addend: 0x0, symName: __ZNSt3__19allocatorINS_11__tree_nodeINS_12__value_typeINS_12basic_stringIcNS_11char_traitsIcEENS0_IcEEEENS_3mapIS7_NS8_IiiNS_4lessIiEENS0_INS_4pairIKiiEEEEEENS9_IS7_EENS0_INSB_IKS7_SF_EEEEEEEEPvEEE10deallocateB7v160006EPSN_m, symObjAddr: 0xA148, symBinAddr: 0x10000D220, symSize: 0x44 }
  - { offsetInCU: 0x1E323, offset: 0x1E323, size: 0x8, addend: 0x0, symName: __ZNSt3__115__tree_iteratorINS_12__value_typeINS_12basic_stringIcNS_11char_traitsIcEENS_9allocatorIcEEEENS_3mapIS7_NS8_IiiNS_4lessIiEENS5_INS_4pairIKiiEEEEEENS9_IS7_EENS5_INSB_IKS7_SF_EEEEEEEEPNS_11__tree_nodeISL_PvEElEC2B7v160006ESP_, symObjAddr: 0xA18C, symBinAddr: 0x10000D264, symSize: 0x20 }
  - { offsetInCU: 0x1E35C, offset: 0x1E35C, size: 0x8, addend: 0x0, symName: __ZNSt3__14pairINS_15__tree_iteratorINS_12__value_typeINS_12basic_stringIcNS_11char_traitsIcEENS_9allocatorIcEEEENS_3mapIS8_NS9_IiiNS_4lessIiEENS6_INS0_IKiiEEEEEENSA_IS8_EENS6_INS0_IKS8_SF_EEEEEEEEPNS_11__tree_nodeISL_PvEElEEbEC2B7v160006ISQ_RbLSN_0EEEOT_OT0_, symObjAddr: 0xA1AC, symBinAddr: 0x10000D284, symSize: 0x38 }
  - { offsetInCU: 0x1E3BA, offset: 0x1E3BA, size: 0x8, addend: 0x0, symName: __ZNSt3__114__map_iteratorINS_15__tree_iteratorINS_12__value_typeINS_12basic_stringIcNS_11char_traitsIcEENS_9allocatorIcEEEENS_3mapIS8_NS9_IiiNS_4lessIiEENS6_INS_4pairIKiiEEEEEENSA_IS8_EENS6_INSC_IKS8_SG_EEEEEEEEPNS_11__tree_nodeISM_PvEElEEEC2B7v160006ESR_, symObjAddr: 0xA1E4, symBinAddr: 0x10000D2BC, symSize: 0x20 }
  - { offsetInCU: 0x1E3F3, offset: 0x1E3F3, size: 0x8, addend: 0x0, symName: __ZNSt3__120__map_const_iteratorINS_21__tree_const_iteratorINS_12__value_typeINS_12basic_stringIcNS_11char_traitsIcEENS_9allocatorIcEEEENS_3mapIS8_NS9_IiiNS_4lessIiEENS6_INS_4pairIKiiEEEEEENSA_IS8_EENS6_INSC_IKS8_SG_EEEEEEEEPNS_11__tree_nodeISM_PvEElEEEC2B7v160006ESR_, symObjAddr: 0xA204, symBinAddr: 0x10000D2DC, symSize: 0x20 }
  - { offsetInCU: 0x1E42C, offset: 0x1E42C, size: 0x8, addend: 0x0, symName: __ZNSt3__16__treeINS_12__value_typeINS_12basic_stringIcNS_11char_traitsIcEENS_9allocatorIcEEEENS_3mapIS7_NS8_IiiNS_4lessIiEENS5_INS_4pairIKiiEEEEEENS9_IS7_EENS5_INSB_IKS7_SF_EEEEEEEENS_19__map_value_compareIS7_SL_SG_Lb1EEENS5_ISL_EEED2Ev, symObjAddr: 0xA224, symBinAddr: 0x10000D2FC, symSize: 0x38 }
  - { offsetInCU: 0x1E458, offset: 0x1E458, size: 0x8, addend: 0x0, symName: __ZNSt3__16__treeINS_12__value_typeINS_12basic_stringIcNS_11char_traitsIcEENS_9allocatorIcEEEENS_3mapIS7_NS8_IiiNS_4lessIiEENS5_INS_4pairIKiiEEEEEENS9_IS7_EENS5_INSB_IKS7_SF_EEEEEEEENS_19__map_value_compareIS7_SL_SG_Lb1EEENS5_ISL_EEE7destroyEPNS_11__tree_nodeISL_PvEE, symObjAddr: 0xA25C, symBinAddr: 0x10000D334, symSize: 0xA8 }
  - { offsetInCU: 0x1E4A4, offset: 0x1E4A4, size: 0x8, addend: 0x0, symName: __ZNSt3__14pairIKNS_12basic_stringIcNS_11char_traitsIcEENS_9allocatorIcEEEENS_3mapIS6_NS8_IiiNS_4lessIiEENS4_INS0_IKiiEEEEEENS9_IS6_EENS4_INS0_IS7_SE_EEEEEEED2Ev, symObjAddr: 0xA304, symBinAddr: 0x10000D3DC, symSize: 0x38 }
  - { offsetInCU: 0x1E4D0, offset: 0x1E4D0, size: 0x8, addend: 0x0, symName: __ZNSt3__13mapINS_12basic_stringIcNS_11char_traitsIcEENS_9allocatorIcEEEENS0_IiiNS_4lessIiEENS4_INS_4pairIKiiEEEEEENS7_IS6_EENS4_INS9_IKS6_SD_EEEEED2B7v160006Ev, symObjAddr: 0xA33C, symBinAddr: 0x10000D414, symSize: 0x2C }
  - { offsetInCU: 0x1E4FA, offset: 0x1E4FA, size: 0x8, addend: 0x0, symName: __ZNSt3__14pairIKNS_12basic_stringIcNS_11char_traitsIcEENS_9allocatorIcEEEENS_3mapIiiNS_4lessIiEENS4_INS0_IKiiEEEEEEED2Ev, symObjAddr: 0xA368, symBinAddr: 0x10000D440, symSize: 0x38 }
  - { offsetInCU: 0x1E526, offset: 0x1E526, size: 0x8, addend: 0x0, symName: __ZNSt3__13mapIiiNS_4lessIiEENS_9allocatorINS_4pairIKiiEEEEED2B7v160006Ev, symObjAddr: 0xA3A0, symBinAddr: 0x10000D478, symSize: 0x2C }
  - { offsetInCU: 0x1E567, offset: 0x1E567, size: 0x8, addend: 0x0, symName: __ZNSt3__16__treeINS_12__value_typeINS_12basic_stringIcNS_11char_traitsIcEENS_9allocatorIcEEEENS_3mapIS7_NS8_IiiNS_4lessIiEENS5_INS_4pairIKiiEEEEEENS9_IS7_EENS5_INSB_IKS7_SF_EEEEEEEENS_19__map_value_compareIS7_SL_SG_Lb1EEENS5_ISL_EEE25__emplace_unique_key_argsIS7_JRKNS_21piecewise_construct_tENS_5tupleIJRSH_EEENSU_IJEEEEEENSB_INS_15__tree_iteratorISL_PNS_11__tree_nodeISL_PvEElEEbEERKT_DpOT0_, symObjAddr: 0xA3CC, symBinAddr: 0x10000D4A4, symSize: 0x100 }
  - { offsetInCU: 0x1E63D, offset: 0x1E63D, size: 0x8, addend: 0x0, symName: __ZNKSt3__115__tree_iteratorINS_12__value_typeINS_12basic_stringIcNS_11char_traitsIcEENS_9allocatorIcEEEENS_3mapIS7_NS8_IiiNS_4lessIiEENS5_INS_4pairIKiiEEEEEENS9_IS7_EENS5_INSB_IKS7_SF_EEEEEEEEPNS_11__tree_nodeISL_PvEElEptB7v160006Ev, symObjAddr: 0xA4FC, symBinAddr: 0x10000D5D4, symSize: 0x2C }
  - { offsetInCU: 0x1E663, offset: 0x1E663, size: 0x8, addend: 0x0, symName: __ZNSt3__16__treeINS_12__value_typeINS_12basic_stringIcNS_11char_traitsIcEENS_9allocatorIcEEEENS_3mapIS7_NS8_IiiNS_4lessIiEENS5_INS_4pairIKiiEEEEEENS9_IS7_EENS5_INSB_IKS7_SF_EEEEEEEENS_19__map_value_compareIS7_SL_SG_Lb1EEENS5_ISL_EEE16__construct_nodeIJRKNS_21piecewise_construct_tENS_5tupleIJRSH_EEENSU_IJEEEEEENS_10unique_ptrINS_11__tree_nodeISL_PvEENS_22__tree_node_destructorINS5_IS11_EEEEEEDpOT_, symObjAddr: 0xA528, symBinAddr: 0x10000D600, symSize: 0x120 }
  - { offsetInCU: 0x1E6EC, offset: 0x1E6EC, size: 0x8, addend: 0x0, symName: __ZNSt3__116allocator_traitsINS_9allocatorINS_11__tree_nodeINS_12__value_typeINS_12basic_stringIcNS_11char_traitsIcEENS1_IcEEEENS_3mapIS8_NS9_IiiNS_4lessIiEENS1_INS_4pairIKiiEEEEEENSA_IS8_EENS1_INSC_IKS8_SG_EEEEEEEEPvEEEEE9constructB7v160006INSC_ISI_SL_EEJRKNS_21piecewise_construct_tENS_5tupleIJRSI_EEENSW_IJEEEEvEEvRSP_PT_DpOT0_, symObjAddr: 0xA648, symBinAddr: 0x10000D720, symSize: 0x44 }
  - { offsetInCU: 0x1E76B, offset: 0x1E76B, size: 0x8, addend: 0x0, symName: __ZNSt3__19allocatorINS_11__tree_nodeINS_12__value_typeINS_12basic_stringIcNS_11char_traitsIcEENS0_IcEEEENS_3mapIS7_NS8_IiiNS_4lessIiEENS0_INS_4pairIKiiEEEEEENS9_IS7_EENS0_INSB_IKS7_SF_EEEEEEEEPvEEE9constructB7v160006INSB_ISH_SK_EEJRKNS_21piecewise_construct_tENS_5tupleIJRSH_EEENSU_IJEEEEEEvPT_DpOT0_, symObjAddr: 0xA68C, symBinAddr: 0x10000D764, symSize: 0x44 }
  - { offsetInCU: 0x1E7E7, offset: 0x1E7E7, size: 0x8, addend: 0x0, symName: __ZNSt3__14pairIKNS_12basic_stringIcNS_11char_traitsIcEENS_9allocatorIcEEEENS_3mapIS6_NS8_IiiNS_4lessIiEENS4_INS0_IKiiEEEEEENS9_IS6_EENS4_INS0_IS7_SE_EEEEEEEC1B7v160006IJRS7_EJEEENS_21piecewise_construct_tENS_5tupleIJDpT_EEENSN_IJDpT0_EEE, symObjAddr: 0xA6D0, symBinAddr: 0x10000D7A8, symSize: 0x3C }
  - { offsetInCU: 0x1E84E, offset: 0x1E84E, size: 0x8, addend: 0x0, symName: __ZNSt3__14pairIKNS_12basic_stringIcNS_11char_traitsIcEENS_9allocatorIcEEEENS_3mapIS6_NS8_IiiNS_4lessIiEENS4_INS0_IKiiEEEEEENS9_IS6_EENS4_INS0_IS7_SE_EEEEEEEC1B7v160006IJRS7_EJEJLm0EEJEEENS_21piecewise_construct_tERNS_5tupleIJDpT_EEERNSN_IJDpT0_EEENS_15__tuple_indicesIJXspT1_EEEENSW_IJXspT2_EEEE, symObjAddr: 0xA70C, symBinAddr: 0x10000D7E4, symSize: 0x3C }
  - { offsetInCU: 0x1E8DE, offset: 0x1E8DE, size: 0x8, addend: 0x0, symName: __ZNSt3__14pairIKNS_12basic_stringIcNS_11char_traitsIcEENS_9allocatorIcEEEENS_3mapIS6_NS8_IiiNS_4lessIiEENS4_INS0_IKiiEEEEEENS9_IS6_EENS4_INS0_IS7_SE_EEEEEEEC2B7v160006IJRS7_EJEJLm0EEJEEENS_21piecewise_construct_tERNS_5tupleIJDpT_EEERNSN_IJDpT0_EEENS_15__tuple_indicesIJXspT1_EEEENSW_IJXspT2_EEEE, symObjAddr: 0xA748, symBinAddr: 0x10000D820, symSize: 0x50 }
  - { offsetInCU: 0x1E96E, offset: 0x1E96E, size: 0x8, addend: 0x0, symName: __ZNSt3__13mapINS_12basic_stringIcNS_11char_traitsIcEENS_9allocatorIcEEEENS0_IiiNS_4lessIiEENS4_INS_4pairIKiiEEEEEENS7_IS6_EENS4_INS9_IKS6_SD_EEEEEC1B7v160006Ev, symObjAddr: 0xA7BC, symBinAddr: 0x10000D894, symSize: 0x2C }
  - { offsetInCU: 0x1E998, offset: 0x1E998, size: 0x8, addend: 0x0, symName: __ZNSt3__112__tuple_leafILm0ERKNS_12basic_stringIcNS_11char_traitsIcEENS_9allocatorIcEEEELb0EE3getB7v160006Ev, symObjAddr: 0xA7E8, symBinAddr: 0x10000D8C0, symSize: 0x18 }
  - { offsetInCU: 0x1E9BE, offset: 0x1E9BE, size: 0x8, addend: 0x0, symName: __ZNSt3__13mapINS_12basic_stringIcNS_11char_traitsIcEENS_9allocatorIcEEEENS0_IiiNS_4lessIiEENS4_INS_4pairIKiiEEEEEENS7_IS6_EENS4_INS9_IKS6_SD_EEEEEC2B7v160006Ev, symObjAddr: 0xA800, symBinAddr: 0x10000D8D8, symSize: 0x40 }
  - { offsetInCU: 0x1E9E8, offset: 0x1E9E8, size: 0x8, addend: 0x0, symName: __ZNSt3__15tupleIJRKNS_12basic_stringIcNS_11char_traitsIcEENS_9allocatorIcEEEEEEC1B7v160006INS_4_AndELi0EEES8_, symObjAddr: 0xA840, symBinAddr: 0x10000D918, symSize: 0x34 }
  - { offsetInCU: 0x1EA30, offset: 0x1EA30, size: 0x8, addend: 0x0, symName: __ZNSt3__15tupleIJRKNS_12basic_stringIcNS_11char_traitsIcEENS_9allocatorIcEEEEEEC2B7v160006INS_4_AndELi0EEES8_, symObjAddr: 0xA874, symBinAddr: 0x10000D94C, symSize: 0x34 }
  - { offsetInCU: 0x1EA78, offset: 0x1EA78, size: 0x8, addend: 0x0, symName: __ZNSt3__112__tuple_implINS_15__tuple_indicesIJLm0EEEEJRKNS_12basic_stringIcNS_11char_traitsIcEENS_9allocatorIcEEEEEEC1B7v160006IJLm0EEJSA_EJEJEJSA_EEENS1_IJXspT_EEEENS_13__tuple_typesIJDpT0_EEENS1_IJXspT1_EEEENSE_IJDpT2_EEEDpOT3_, symObjAddr: 0xA8A8, symBinAddr: 0x10000D980, symSize: 0x34 }
  - { offsetInCU: 0x1EB0D, offset: 0x1EB0D, size: 0x8, addend: 0x0, symName: __ZNSt3__112__tuple_implINS_15__tuple_indicesIJLm0EEEEJRKNS_12basic_stringIcNS_11char_traitsIcEENS_9allocatorIcEEEEEEC2B7v160006IJLm0EEJSA_EJEJEJSA_EEENS1_IJXspT_EEEENS_13__tuple_typesIJDpT0_EEENS1_IJXspT1_EEEENSE_IJDpT2_EEEDpOT3_, symObjAddr: 0xA8DC, symBinAddr: 0x10000D9B4, symSize: 0x34 }
  - { offsetInCU: 0x1EBA2, offset: 0x1EBA2, size: 0x8, addend: 0x0, symName: __ZNSt3__112__tuple_leafILm0ERKNS_12basic_stringIcNS_11char_traitsIcEENS_9allocatorIcEEEELb0EEC2B7v160006IS8_vEEOT_, symObjAddr: 0xA910, symBinAddr: 0x10000D9E8, symSize: 0x20 }
  - { offsetInCU: 0x1EBE5, offset: 0x1EBE5, size: 0x8, addend: 0x0, symName: __ZNSt3__114pointer_traitsIPNS_12__value_typeINS_12basic_stringIcNS_11char_traitsIcEENS_9allocatorIcEEEENS_3mapIS7_NS8_IiiNS_4lessIiEENS5_INS_4pairIKiiEEEEEENS9_IS7_EENS5_INSB_IKS7_SF_EEEEEEEEE10pointer_toB7v160006ERSL_, symObjAddr: 0xA930, symBinAddr: 0x10000DA08, symSize: 0x14 }
  - { offsetInCU: 0x1EC08, offset: 0x1EC08, size: 0x8, addend: 0x0, symName: __ZNKSt3__115__tree_iteratorINS_12__value_typeINS_12basic_stringIcNS_11char_traitsIcEENS_9allocatorIcEEEENS_3mapIS7_NS8_IiiNS_4lessIiEENS5_INS_4pairIKiiEEEEEENS9_IS7_EENS5_INSB_IKS7_SF_EEEEEEEEPNS_11__tree_nodeISL_PvEElE8__get_npB7v160006Ev, symObjAddr: 0xA944, symBinAddr: 0x10000DA1C, symSize: 0x18 }
  - { offsetInCU: 0x1EC2E, offset: 0x1EC2E, size: 0x8, addend: 0x0, symName: __ZNSt3__16__treeINS_12__value_typeINS_12basic_stringIcNS_11char_traitsIcEENS_9allocatorIcEEEENS_3mapIiiNS_4lessIiEENS5_INS_4pairIKiiEEEEEEEENS_19__map_value_compareIS7_SG_NS9_IS7_EELb1EEENS5_ISG_EEE25__emplace_unique_key_argsIS7_JRKNS_21piecewise_construct_tENS_5tupleIJRKS7_EEENSQ_IJEEEEEENSB_INS_15__tree_iteratorISG_PNS_11__tree_nodeISG_PvEElEEbEERKT_DpOT0_, symObjAddr: 0xA95C, symBinAddr: 0x10000DA34, symSize: 0x100 }
  - { offsetInCU: 0x1ED04, offset: 0x1ED04, size: 0x8, addend: 0x0, symName: __ZNKSt3__115__tree_iteratorINS_12__value_typeINS_12basic_stringIcNS_11char_traitsIcEENS_9allocatorIcEEEENS_3mapIiiNS_4lessIiEENS5_INS_4pairIKiiEEEEEEEEPNS_11__tree_nodeISG_PvEElEptB7v160006Ev, symObjAddr: 0xAA5C, symBinAddr: 0x10000DB34, symSize: 0x2C }
  - { offsetInCU: 0x1ED2A, offset: 0x1ED2A, size: 0x8, addend: 0x0, symName: __ZNSt3__16__treeINS_12__value_typeINS_12basic_stringIcNS_11char_traitsIcEENS_9allocatorIcEEEENS_3mapIiiNS_4lessIiEENS5_INS_4pairIKiiEEEEEEEENS_19__map_value_compareIS7_SG_NS9_IS7_EELb1EEENS5_ISG_EEE16__construct_nodeIJRKNS_21piecewise_construct_tENS_5tupleIJRKS7_EEENSQ_IJEEEEEENS_10unique_ptrINS_11__tree_nodeISG_PvEENS_22__tree_node_destructorINS5_ISY_EEEEEEDpOT_, symObjAddr: 0xAA88, symBinAddr: 0x10000DB60, symSize: 0x120 }
  - { offsetInCU: 0x1EDB3, offset: 0x1EDB3, size: 0x8, addend: 0x0, symName: __ZNSt3__116allocator_traitsINS_9allocatorINS_11__tree_nodeINS_12__value_typeINS_12basic_stringIcNS_11char_traitsIcEENS1_IcEEEENS_3mapIiiNS_4lessIiEENS1_INS_4pairIKiiEEEEEEEEPvEEEEE9constructB7v160006INSC_IKS8_SG_EEJRKNS_21piecewise_construct_tENS_5tupleIJRSN_EEENSS_IJEEEEvEEvRSK_PT_DpOT0_, symObjAddr: 0xABA8, symBinAddr: 0x10000DC80, symSize: 0x44 }
  - { offsetInCU: 0x1EE32, offset: 0x1EE32, size: 0x8, addend: 0x0, symName: __ZNSt3__19allocatorINS_11__tree_nodeINS_12__value_typeINS_12basic_stringIcNS_11char_traitsIcEENS0_IcEEEENS_3mapIiiNS_4lessIiEENS0_INS_4pairIKiiEEEEEEEEPvEEE9constructB7v160006INSB_IKS7_SF_EEJRKNS_21piecewise_construct_tENS_5tupleIJRSL_EEENSQ_IJEEEEEEvPT_DpOT0_, symObjAddr: 0xABEC, symBinAddr: 0x10000DCC4, symSize: 0x44 }
  - { offsetInCU: 0x1EEAE, offset: 0x1EEAE, size: 0x8, addend: 0x0, symName: __ZNSt3__14pairIKNS_12basic_stringIcNS_11char_traitsIcEENS_9allocatorIcEEEENS_3mapIiiNS_4lessIiEENS4_INS0_IKiiEEEEEEEC1B7v160006IJRS7_EJEEENS_21piecewise_construct_tENS_5tupleIJDpT_EEENSJ_IJDpT0_EEE, symObjAddr: 0xAC30, symBinAddr: 0x10000DD08, symSize: 0x3C }
  - { offsetInCU: 0x1EF15, offset: 0x1EF15, size: 0x8, addend: 0x0, symName: __ZNSt3__14pairIKNS_12basic_stringIcNS_11char_traitsIcEENS_9allocatorIcEEEENS_3mapIiiNS_4lessIiEENS4_INS0_IKiiEEEEEEEC1B7v160006IJRS7_EJEJLm0EEJEEENS_21piecewise_construct_tERNS_5tupleIJDpT_EEERNSJ_IJDpT0_EEENS_15__tuple_indicesIJXspT1_EEEENSS_IJXspT2_EEEE, symObjAddr: 0xAC6C, symBinAddr: 0x10000DD44, symSize: 0x3C }
  - { offsetInCU: 0x1EFA5, offset: 0x1EFA5, size: 0x8, addend: 0x0, symName: __ZNSt3__14pairIKNS_12basic_stringIcNS_11char_traitsIcEENS_9allocatorIcEEEENS_3mapIiiNS_4lessIiEENS4_INS0_IKiiEEEEEEEC2B7v160006IJRS7_EJEJLm0EEJEEENS_21piecewise_construct_tERNS_5tupleIJDpT_EEERNSJ_IJDpT0_EEENS_15__tuple_indicesIJXspT1_EEEENSS_IJXspT2_EEEE, symObjAddr: 0xACA8, symBinAddr: 0x10000DD80, symSize: 0x50 }
  - { offsetInCU: 0x1F035, offset: 0x1F035, size: 0x8, addend: 0x0, symName: __ZNSt3__13mapIiiNS_4lessIiEENS_9allocatorINS_4pairIKiiEEEEEC1B7v160006Ev, symObjAddr: 0xACF8, symBinAddr: 0x10000DDD0, symSize: 0x2C }
  - { offsetInCU: 0x1F05F, offset: 0x1F05F, size: 0x8, addend: 0x0, symName: __ZNSt3__13mapIiiNS_4lessIiEENS_9allocatorINS_4pairIKiiEEEEEC2B7v160006Ev, symObjAddr: 0xAD24, symBinAddr: 0x10000DDFC, symSize: 0x40 }
  - { offsetInCU: 0x1F089, offset: 0x1F089, size: 0x8, addend: 0x0, symName: __ZNSt3__114pointer_traitsIPNS_12__value_typeINS_12basic_stringIcNS_11char_traitsIcEENS_9allocatorIcEEEENS_3mapIiiNS_4lessIiEENS5_INS_4pairIKiiEEEEEEEEE10pointer_toB7v160006ERSG_, symObjAddr: 0xAD64, symBinAddr: 0x10000DE3C, symSize: 0x14 }
  - { offsetInCU: 0x1F0AC, offset: 0x1F0AC, size: 0x8, addend: 0x0, symName: __ZNKSt3__115__tree_iteratorINS_12__value_typeINS_12basic_stringIcNS_11char_traitsIcEENS_9allocatorIcEEEENS_3mapIiiNS_4lessIiEENS5_INS_4pairIKiiEEEEEEEEPNS_11__tree_nodeISG_PvEElE8__get_npB7v160006Ev, symObjAddr: 0xAD78, symBinAddr: 0x10000DE50, symSize: 0x18 }
  - { offsetInCU: 0x1F0D2, offset: 0x1F0D2, size: 0x8, addend: 0x0, symName: __ZNSt3__16__treeINS_12__value_typeIiiEENS_19__map_value_compareIiS2_NS_4lessIiEELb1EEENS_9allocatorIS2_EEE25__emplace_unique_key_argsIiJRKNS_21piecewise_construct_tENS_5tupleIJRKiEEENSE_IJEEEEEENS_4pairINS_15__tree_iteratorIS2_PNS_11__tree_nodeIS2_PvEElEEbEERKT_DpOT0_, symObjAddr: 0xAD90, symBinAddr: 0x10000DE68, symSize: 0x100 }
  - { offsetInCU: 0x1F1A8, offset: 0x1F1A8, size: 0x8, addend: 0x0, symName: __ZNKSt3__115__tree_iteratorINS_12__value_typeIiiEEPNS_11__tree_nodeIS2_PvEElEptB7v160006Ev, symObjAddr: 0xAEBC, symBinAddr: 0x10000DF94, symSize: 0x2C }
  - { offsetInCU: 0x1F1CE, offset: 0x1F1CE, size: 0x8, addend: 0x0, symName: __ZNSt3__16__treeINS_12__value_typeIiiEENS_19__map_value_compareIiS2_NS_4lessIiEELb1EEENS_9allocatorIS2_EEE16__construct_nodeIJRKNS_21piecewise_construct_tENS_5tupleIJRKiEEENSE_IJEEEEEENS_10unique_ptrINS_11__tree_nodeIS2_PvEENS_22__tree_node_destructorINS7_ISM_EEEEEEDpOT_, symObjAddr: 0xAEE8, symBinAddr: 0x10000DFC0, symSize: 0x120 }
  - { offsetInCU: 0x1F257, offset: 0x1F257, size: 0x8, addend: 0x0, symName: __ZNSt3__116allocator_traitsINS_9allocatorINS_11__tree_nodeINS_12__value_typeIiiEEPvEEEEE9constructB7v160006INS_4pairIKiiEEJRKNS_21piecewise_construct_tENS_5tupleIJRSB_EEENSG_IJEEEEvEEvRS7_PT_DpOT0_, symObjAddr: 0xB008, symBinAddr: 0x10000E0E0, symSize: 0x44 }
  - { offsetInCU: 0x1F2D6, offset: 0x1F2D6, size: 0x8, addend: 0x0, symName: __ZNSt3__19allocatorINS_11__tree_nodeINS_12__value_typeIiiEEPvEEE9constructB7v160006INS_4pairIKiiEEJRKNS_21piecewise_construct_tENS_5tupleIJRS9_EEENSE_IJEEEEEEvPT_DpOT0_, symObjAddr: 0xB04C, symBinAddr: 0x10000E124, symSize: 0x44 }
  - { offsetInCU: 0x1F352, offset: 0x1F352, size: 0x8, addend: 0x0, symName: __ZNSt3__14pairIKiiEC1B7v160006IJRS1_EJEEENS_21piecewise_construct_tENS_5tupleIJDpT_EEENS6_IJDpT0_EEE, symObjAddr: 0xB090, symBinAddr: 0x10000E168, symSize: 0x44 }
  - { offsetInCU: 0x1F3B9, offset: 0x1F3B9, size: 0x8, addend: 0x0, symName: __ZNSt3__14pairIKiiEC1B7v160006IJRS1_EJEJLm0EEJEEENS_21piecewise_construct_tERNS_5tupleIJDpT_EEERNS6_IJDpT0_EEENS_15__tuple_indicesIJXspT1_EEEENSF_IJXspT2_EEEE, symObjAddr: 0xB0D4, symBinAddr: 0x10000E1AC, symSize: 0x3C }
  - { offsetInCU: 0x1F449, offset: 0x1F449, size: 0x8, addend: 0x0, symName: __ZNSt3__14pairIKiiEC2B7v160006IJRS1_EJEJLm0EEJEEENS_21piecewise_construct_tERNS_5tupleIJDpT_EEERNS6_IJDpT0_EEENS_15__tuple_indicesIJXspT1_EEEENSF_IJXspT2_EEEE, symObjAddr: 0xB110, symBinAddr: 0x10000E1E8, symSize: 0x48 }
  - { offsetInCU: 0x1F4D9, offset: 0x1F4D9, size: 0x8, addend: 0x0, symName: __ZNSt3__112__tuple_leafILm0ERKiLb0EE3getB7v160006Ev, symObjAddr: 0xB17C, symBinAddr: 0x10000E254, symSize: 0x18 }
  - { offsetInCU: 0x1F4FF, offset: 0x1F4FF, size: 0x8, addend: 0x0, symName: __ZNSt3__15tupleIJRKiEEC1B7v160006INS_4_AndELi0EEES2_, symObjAddr: 0xB194, symBinAddr: 0x10000E26C, symSize: 0x34 }
  - { offsetInCU: 0x1F547, offset: 0x1F547, size: 0x8, addend: 0x0, symName: __ZNSt3__15tupleIJRKiEEC2B7v160006INS_4_AndELi0EEES2_, symObjAddr: 0xB1C8, symBinAddr: 0x10000E2A0, symSize: 0x34 }
  - { offsetInCU: 0x1F58F, offset: 0x1F58F, size: 0x8, addend: 0x0, symName: __ZNSt3__112__tuple_implINS_15__tuple_indicesIJLm0EEEEJRKiEEC1B7v160006IJLm0EEJS4_EJEJEJS4_EEENS1_IJXspT_EEEENS_13__tuple_typesIJDpT0_EEENS1_IJXspT1_EEEENS8_IJDpT2_EEEDpOT3_, symObjAddr: 0xB1FC, symBinAddr: 0x10000E2D4, symSize: 0x34 }
  - { offsetInCU: 0x1F624, offset: 0x1F624, size: 0x8, addend: 0x0, symName: __ZNSt3__112__tuple_implINS_15__tuple_indicesIJLm0EEEEJRKiEEC2B7v160006IJLm0EEJS4_EJEJEJS4_EEENS1_IJXspT_EEEENS_13__tuple_typesIJDpT0_EEENS1_IJXspT1_EEEENS8_IJDpT2_EEEDpOT3_, symObjAddr: 0xB230, symBinAddr: 0x10000E308, symSize: 0x34 }
  - { offsetInCU: 0x1F6B9, offset: 0x1F6B9, size: 0x8, addend: 0x0, symName: __ZNSt3__112__tuple_leafILm0ERKiLb0EEC2B7v160006IS2_vEEOT_, symObjAddr: 0xB264, symBinAddr: 0x10000E33C, symSize: 0x20 }
  - { offsetInCU: 0x1F6FC, offset: 0x1F6FC, size: 0x8, addend: 0x0, symName: __ZNSt3__114pointer_traitsIPNS_12__value_typeIiiEEE10pointer_toB7v160006ERS2_, symObjAddr: 0xB284, symBinAddr: 0x10000E35C, symSize: 0x14 }
  - { offsetInCU: 0x1F71F, offset: 0x1F71F, size: 0x8, addend: 0x0, symName: __ZNKSt3__115__tree_iteratorINS_12__value_typeIiiEEPNS_11__tree_nodeIS2_PvEElE8__get_npB7v160006Ev, symObjAddr: 0xB298, symBinAddr: 0x10000E370, symSize: 0x18 }
  - { offsetInCU: 0x1F745, offset: 0x1F745, size: 0x8, addend: 0x0, symName: __ZNSt3__13mapINS_12basic_stringIcNS_11char_traitsIcEENS_9allocatorIcEEEENS0_IS6_NS0_IiiNS_4lessIiEENS4_INS_4pairIKiiEEEEEENS7_IS6_EENS4_INS9_IKS6_SD_EEEEEESE_NS4_INS9_ISF_SI_EEEEED2B7v160006Ev, symObjAddr: 0xB2B0, symBinAddr: 0x10000E388, symSize: 0x2C }
  - { offsetInCU: 0x1F76F, offset: 0x1F76F, size: 0x8, addend: 0x0, symName: __ZNSt3__114basic_ofstreamIcNS_11char_traitsIcEEED2Ev, symObjAddr: 0xB2DC, symBinAddr: 0x10000E3B4, symSize: 0x64 }
  - { offsetInCU: 0x1F7A9, offset: 0x1F7A9, size: 0x8, addend: 0x0, symName: __ZTv0_n24_NSt3__114basic_ofstreamIcNS_11char_traitsIcEEED1Ev, symObjAddr: 0xB340, symBinAddr: 0x10000E418, symSize: 0x28 }
  - { offsetInCU: 0x1F7C0, offset: 0x1F7C0, size: 0x8, addend: 0x0, symName: __ZNSt3__114basic_ifstreamIcNS_11char_traitsIcEEED2Ev, symObjAddr: 0xB368, symBinAddr: 0x10000E440, symSize: 0x64 }
  - { offsetInCU: 0x1F7FA, offset: 0x1F7FA, size: 0x8, addend: 0x0, symName: __ZTv0_n24_NSt3__114basic_ifstreamIcNS_11char_traitsIcEEED1Ev, symObjAddr: 0xB3CC, symBinAddr: 0x10000E4A4, symSize: 0x28 }
  - { offsetInCU: 0x1F811, offset: 0x1F811, size: 0x8, addend: 0x0, symName: __ZNSt3__14listI3CowNS_9allocatorIS1_EEED2Ev, symObjAddr: 0xB3F4, symBinAddr: 0x10000E4CC, symSize: 0x2C }
  - { offsetInCU: 0x1F83E, offset: 0x1F83E, size: 0x8, addend: 0x0, symName: __ZNSt3__110__list_impI3CowNS_9allocatorIS1_EEED2Ev, symObjAddr: 0xB420, symBinAddr: 0x10000E4F8, symSize: 0x3C }
  - { offsetInCU: 0x1F86A, offset: 0x1F86A, size: 0x8, addend: 0x0, symName: __ZNSt3__110__list_impI3CowNS_9allocatorIS1_EEE5clearEv, symObjAddr: 0xB45C, symBinAddr: 0x10000E534, symSize: 0xEC }
  - { offsetInCU: 0x1F8DA, offset: 0x1F8DA, size: 0x8, addend: 0x0, symName: __ZNKSt3__110__list_impI3CowNS_9allocatorIS1_EEE5emptyB7v160006Ev, symObjAddr: 0xB558, symBinAddr: 0x10000E630, symSize: 0x34 }
  - { offsetInCU: 0x1F900, offset: 0x1F900, size: 0x8, addend: 0x0, symName: __ZNSt3__110__list_impI3CowNS_9allocatorIS1_EEE12__node_allocB7v160006Ev, symObjAddr: 0xB58C, symBinAddr: 0x10000E664, symSize: 0x28 }
  - { offsetInCU: 0x1F926, offset: 0x1F926, size: 0x8, addend: 0x0, symName: __ZNKSt3__110__list_impI3CowNS_9allocatorIS1_EEE13__end_as_linkB7v160006Ev, symObjAddr: 0xB5B4, symBinAddr: 0x10000E68C, symSize: 0x44 }
  - { offsetInCU: 0x1F94C, offset: 0x1F94C, size: 0x8, addend: 0x0, symName: __ZNSt3__110__list_impI3CowNS_9allocatorIS1_EEE14__unlink_nodesEPNS_16__list_node_baseIS1_PvEES8_, symObjAddr: 0xB5F8, symBinAddr: 0x10000E6D0, symSize: 0x3C }
  - { offsetInCU: 0x1F981, offset: 0x1F981, size: 0x8, addend: 0x0, symName: __ZNSt3__110__list_impI3CowNS_9allocatorIS1_EEE4__szB7v160006Ev, symObjAddr: 0xB634, symBinAddr: 0x10000E70C, symSize: 0x28 }
  - { offsetInCU: 0x1F9A7, offset: 0x1F9A7, size: 0x8, addend: 0x0, symName: __ZNSt3__116__list_node_baseI3CowPvE9__as_nodeB7v160006Ev, symObjAddr: 0xB65C, symBinAddr: 0x10000E734, symSize: 0x24 }
  - { offsetInCU: 0x1F9CD, offset: 0x1F9CD, size: 0x8, addend: 0x0, symName: __ZNSt3__116allocator_traitsINS_9allocatorINS_11__list_nodeI3CowPvEEEEE7destroyB7v160006IS3_vvEEvRS6_PT_, symObjAddr: 0xB680, symBinAddr: 0x10000E758, symSize: 0x28 }
  - { offsetInCU: 0x1FA08, offset: 0x1FA08, size: 0x8, addend: 0x0, symName: __ZNSt3__116allocator_traitsINS_9allocatorINS_11__list_nodeI3CowPvEEEEE10deallocateB7v160006ERS6_PS5_m, symObjAddr: 0xB6A8, symBinAddr: 0x10000E780, symSize: 0x34 }
  - { offsetInCU: 0x1FA4A, offset: 0x1FA4A, size: 0x8, addend: 0x0, symName: __ZNKSt3__110__list_impI3CowNS_9allocatorIS1_EEE4__szB7v160006Ev, symObjAddr: 0xB6EC, symBinAddr: 0x10000E7C4, symSize: 0x28 }
  - { offsetInCU: 0x1FA70, offset: 0x1FA70, size: 0x8, addend: 0x0, symName: __ZNKSt3__117__compressed_pairImNS_9allocatorINS_11__list_nodeI3CowPvEEEEE5firstB7v160006Ev, symObjAddr: 0xB714, symBinAddr: 0x10000E7EC, symSize: 0x24 }
  - { offsetInCU: 0x1FA96, offset: 0x1FA96, size: 0x8, addend: 0x0, symName: __ZNKSt3__122__compressed_pair_elemImLi0ELb0EE5__getB7v160006Ev, symObjAddr: 0xB738, symBinAddr: 0x10000E810, symSize: 0x14 }
  - { offsetInCU: 0x1FABC, offset: 0x1FABC, size: 0x8, addend: 0x0, symName: __ZNSt3__117__compressed_pairImNS_9allocatorINS_11__list_nodeI3CowPvEEEEE6secondB7v160006Ev, symObjAddr: 0xB74C, symBinAddr: 0x10000E824, symSize: 0x24 }
  - { offsetInCU: 0x1FAE2, offset: 0x1FAE2, size: 0x8, addend: 0x0, symName: __ZNSt3__122__compressed_pair_elemINS_9allocatorINS_11__list_nodeI3CowPvEEEELi1ELb1EE5__getB7v160006Ev, symObjAddr: 0xB770, symBinAddr: 0x10000E848, symSize: 0x14 }
  - { offsetInCU: 0x1FB08, offset: 0x1FB08, size: 0x8, addend: 0x0, symName: __ZNSt3__126__list_node_pointer_traitsI3CowPvE26__unsafe_link_pointer_castB7v160006EPNS_16__list_node_baseIS1_S2_EE, symObjAddr: 0xB784, symBinAddr: 0x10000E85C, symSize: 0x14 }
  - { offsetInCU: 0x1FB2C, offset: 0x1FB2C, size: 0x8, addend: 0x0, symName: __ZNSt3__116__list_node_baseI3CowPvE6__selfB7v160006Ev, symObjAddr: 0xB798, symBinAddr: 0x10000E870, symSize: 0x24 }
  - { offsetInCU: 0x1FB58, offset: 0x1FB58, size: 0x8, addend: 0x0, symName: __ZNSt3__114pointer_traitsIPNS_16__list_node_baseI3CowPvEEE10pointer_toB7v160006ERS4_, symObjAddr: 0xB7BC, symBinAddr: 0x10000E894, symSize: 0x14 }
  - { offsetInCU: 0x1FB7B, offset: 0x1FB7B, size: 0x8, addend: 0x0, symName: __ZNSt3__117__compressed_pairImNS_9allocatorINS_11__list_nodeI3CowPvEEEEE5firstB7v160006Ev, symObjAddr: 0xB7D0, symBinAddr: 0x10000E8A8, symSize: 0x24 }
  - { offsetInCU: 0x1FBA1, offset: 0x1FBA1, size: 0x8, addend: 0x0, symName: __ZNSt3__19allocatorINS_11__list_nodeI3CowPvEEE10deallocateB7v160006EPS4_m, symObjAddr: 0xB7F4, symBinAddr: 0x10000E8CC, symSize: 0x40 }
  - { offsetInCU: 0x1FBE3, offset: 0x1FBE3, size: 0x8, addend: 0x0, symName: __ZNSt3__119basic_istringstreamIcNS_11char_traitsIcEENS_9allocatorIcEEED2Ev, symObjAddr: 0xB834, symBinAddr: 0x10000E90C, symSize: 0x64 }
  - { offsetInCU: 0x1FC1D, offset: 0x1FC1D, size: 0x8, addend: 0x0, symName: __ZTv0_n24_NSt3__119basic_istringstreamIcNS_11char_traitsIcEENS_9allocatorIcEEED1Ev, symObjAddr: 0xB898, symBinAddr: 0x10000E970, symSize: 0x28 }
  - { offsetInCU: 0x1FC39, offset: 0x1FC39, size: 0x8, addend: 0x0, symName: __ZNSt3__115basic_stringbufIcNS_11char_traitsIcEENS_9allocatorIcEEED1Ev, symObjAddr: 0xB8C0, symBinAddr: 0x10000E998, symSize: 0x2C }
  - { offsetInCU: 0x1FC66, offset: 0x1FC66, size: 0x8, addend: 0x0, symName: __ZNSt3__115basic_stringbufIcNS_11char_traitsIcEENS_9allocatorIcEEED2Ev, symObjAddr: 0xB8EC, symBinAddr: 0x10000E9C4, symSize: 0x48 }
  - { offsetInCU: 0x1FC93, offset: 0x1FC93, size: 0x8, addend: 0x0, symName: __ZNSt3__112basic_stringIcNS_11char_traitsIcEENS_9allocatorIcEEEC2B7v160006Ev, symObjAddr: 0xB934, symBinAddr: 0x10000EA0C, symSize: 0x54 }
  - { offsetInCU: 0x1FCBD, offset: 0x1FCBD, size: 0x8, addend: 0x0, symName: __ZNSt3__117__compressed_pairINS_12basic_stringIcNS_11char_traitsIcEENS_9allocatorIcEEE5__repES5_EC1B7v160006INS_18__default_init_tagESA_EEOT_OT0_, symObjAddr: 0xB988, symBinAddr: 0x10000EA60, symSize: 0x3C }
  - { offsetInCU: 0x1FD15, offset: 0x1FD15, size: 0x8, addend: 0x0, symName: __ZNSt3__112basic_stringIcNS_11char_traitsIcEENS_9allocatorIcEEE14__default_initB7v160006Ev, symObjAddr: 0xB9D4, symBinAddr: 0x10000EAAC, symSize: 0x40 }
  - { offsetInCU: 0x1FD3B, offset: 0x1FD3B, size: 0x8, addend: 0x0, symName: __ZNSt3__117__compressed_pairINS_12basic_stringIcNS_11char_traitsIcEENS_9allocatorIcEEE5__repES5_EC2B7v160006INS_18__default_init_tagESA_EEOT_OT0_, symObjAddr: 0xBA14, symBinAddr: 0x10000EAEC, symSize: 0x3C }
  - { offsetInCU: 0x1FD93, offset: 0x1FD93, size: 0x8, addend: 0x0, symName: __ZNSt3__122__compressed_pair_elemINS_12basic_stringIcNS_11char_traitsIcEENS_9allocatorIcEEE5__repELi0ELb0EEC2B7v160006ENS_18__default_init_tagE, symObjAddr: 0xBA50, symBinAddr: 0x10000EB28, symSize: 0x14 }
  - { offsetInCU: 0x1FDC7, offset: 0x1FDC7, size: 0x8, addend: 0x0, symName: __ZNSt3__122__compressed_pair_elemINS_9allocatorIcEELi1ELb1EEC2B7v160006ENS_18__default_init_tagE, symObjAddr: 0xBA64, symBinAddr: 0x10000EB3C, symSize: 0x2C }
  - { offsetInCU: 0x1FDFB, offset: 0x1FDFB, size: 0x8, addend: 0x0, symName: __ZNSt3__19allocatorIcEC2B7v160006Ev, symObjAddr: 0xBA90, symBinAddr: 0x10000EB68, symSize: 0x2C }
  - { offsetInCU: 0x1FE25, offset: 0x1FE25, size: 0x8, addend: 0x0, symName: __ZNSt3__116__non_trivial_ifILb1ENS_9allocatorIcEEEC2B7v160006Ev, symObjAddr: 0xBABC, symBinAddr: 0x10000EB94, symSize: 0x14 }
  - { offsetInCU: 0x1FE4F, offset: 0x1FE4F, size: 0x8, addend: 0x0, symName: __ZNSt3__117__compressed_pairINS_12basic_stringIcNS_11char_traitsIcEENS_9allocatorIcEEE5__repES5_E5firstB7v160006Ev, symObjAddr: 0xBAD0, symBinAddr: 0x10000EBA8, symSize: 0x24 }
  - { offsetInCU: 0x1FE75, offset: 0x1FE75, size: 0x8, addend: 0x0, symName: __ZNSt3__122__compressed_pair_elemINS_12basic_stringIcNS_11char_traitsIcEENS_9allocatorIcEEE5__repELi0ELb0EE5__getB7v160006Ev, symObjAddr: 0xBAF4, symBinAddr: 0x10000EBCC, symSize: 0x14 }
  - { offsetInCU: 0x1FE9B, offset: 0x1FE9B, size: 0x8, addend: 0x0, symName: __ZNSt3__111char_traitsIcE6lengthEPKc, symObjAddr: 0xBCF4, symBinAddr: 0x10000EDCC, symSize: 0x34 }
  - { offsetInCU: 0x1FEDF, offset: 0x1FEDF, size: 0x8, addend: 0x0, symName: __ZNKSt3__113basic_ostreamIcNS_11char_traitsIcEEE6sentrycvbB7v160006Ev, symObjAddr: 0xBD28, symBinAddr: 0x10000EE00, symSize: 0x1C }
  - { offsetInCU: 0x1FF05, offset: 0x1FF05, size: 0x8, addend: 0x0, symName: __ZNSt3__119ostreambuf_iteratorIcNS_11char_traitsIcEEEC1B7v160006ERNS_13basic_ostreamIcS2_EE, symObjAddr: 0xBF84, symBinAddr: 0x10000F05C, symSize: 0x34 }
  - { offsetInCU: 0x1FF3D, offset: 0x1FF3D, size: 0x8, addend: 0x0, symName: __ZNKSt3__18ios_base5flagsB7v160006Ev, symObjAddr: 0xBFB8, symBinAddr: 0x10000F090, symSize: 0x18 }
  - { offsetInCU: 0x1FF65, offset: 0x1FF65, size: 0x8, addend: 0x0, symName: __ZNKSt3__19basic_iosIcNS_11char_traitsIcEEE4fillB7v160006Ev, symObjAddr: 0xBFD0, symBinAddr: 0x10000F0A8, symSize: 0x64 }
  - { offsetInCU: 0x1FF8D, offset: 0x1FF8D, size: 0x8, addend: 0x0, symName: __ZNKSt3__119ostreambuf_iteratorIcNS_11char_traitsIcEEE6failedB7v160006Ev, symObjAddr: 0xC034, symBinAddr: 0x10000F10C, symSize: 0x24 }
  - { offsetInCU: 0x1FFB3, offset: 0x1FFB3, size: 0x8, addend: 0x0, symName: __ZNSt3__19basic_iosIcNS_11char_traitsIcEEE8setstateB7v160006Ej, symObjAddr: 0xC058, symBinAddr: 0x10000F130, symSize: 0x2C }
  - { offsetInCU: 0x1FFE8, offset: 0x1FFE8, size: 0x8, addend: 0x0, symName: __ZNKSt3__18ios_base5widthB7v160006Ev, symObjAddr: 0xC084, symBinAddr: 0x10000F15C, symSize: 0x18 }
  - { offsetInCU: 0x20010, offset: 0x20010, size: 0x8, addend: 0x0, symName: __ZNSt3__115basic_streambufIcNS_11char_traitsIcEEE5sputnB7v160006EPKcl, symObjAddr: 0xC09C, symBinAddr: 0x10000F174, symSize: 0x3C }
  - { offsetInCU: 0x20052, offset: 0x20052, size: 0x8, addend: 0x0, symName: __ZNSt3__112basic_stringIcNS_11char_traitsIcEENS_9allocatorIcEEEC1B7v160006Emc, symObjAddr: 0xC0D8, symBinAddr: 0x10000F1B0, symSize: 0x3C }
  - { offsetInCU: 0x2009A, offset: 0x2009A, size: 0x8, addend: 0x0, symName: __ZNSt3__18ios_base5widthB7v160006El, symObjAddr: 0xC114, symBinAddr: 0x10000F1EC, symSize: 0x2C }
  - { offsetInCU: 0x200E0, offset: 0x200E0, size: 0x8, addend: 0x0, symName: __ZNSt3__112basic_stringIcNS_11char_traitsIcEENS_9allocatorIcEEEC2B7v160006Emc, symObjAddr: 0xC140, symBinAddr: 0x10000F218, symSize: 0x54 }
  - { offsetInCU: 0x20128, offset: 0x20128, size: 0x8, addend: 0x0, symName: __ZNSt3__119ostreambuf_iteratorIcNS_11char_traitsIcEEEC2B7v160006ERNS_13basic_ostreamIcS2_EE, symObjAddr: 0xC194, symBinAddr: 0x10000F26C, symSize: 0x54 }
  - { offsetInCU: 0x20160, offset: 0x20160, size: 0x8, addend: 0x0, symName: __ZNKSt3__19basic_iosIcNS_11char_traitsIcEEE5rdbufB7v160006Ev, symObjAddr: 0xC1E8, symBinAddr: 0x10000F2C0, symSize: 0x24 }
  - { offsetInCU: 0x20188, offset: 0x20188, size: 0x8, addend: 0x0, symName: __ZNKSt3__18ios_base5rdbufB7v160006Ev, symObjAddr: 0xC20C, symBinAddr: 0x10000F2E4, symSize: 0x18 }
  - { offsetInCU: 0x201AE, offset: 0x201AE, size: 0x8, addend: 0x0, symName: __ZNSt3__111char_traitsIcE11eq_int_typeEii, symObjAddr: 0xC224, symBinAddr: 0x10000F2FC, symSize: 0x28 }
  - { offsetInCU: 0x201DF, offset: 0x201DF, size: 0x8, addend: 0x0, symName: __ZNSt3__111char_traitsIcE3eofEv, symObjAddr: 0xC24C, symBinAddr: 0x10000F324, symSize: 0x8 }
  - { offsetInCU: 0x201F3, offset: 0x201F3, size: 0x8, addend: 0x0, symName: __ZNKSt3__19basic_iosIcNS_11char_traitsIcEEE5widenB7v160006Ec, symObjAddr: 0xC254, symBinAddr: 0x10000F32C, symSize: 0x84 }
  - { offsetInCU: 0x20261, offset: 0x20261, size: 0x8, addend: 0x0, symName: __ZNKSt3__15ctypeIcE5widenB7v160006Ec, symObjAddr: 0xC304, symBinAddr: 0x10000F3DC, symSize: 0x38 }
  - { offsetInCU: 0x20296, offset: 0x20296, size: 0x8, addend: 0x0, symName: __ZNSt3__18ios_base8setstateB7v160006Ej, symObjAddr: 0xC33C, symBinAddr: 0x10000F414, symSize: 0x34 }
  - { offsetInCU: 0x202CD, offset: 0x202CD, size: 0x8, addend: 0x0, symName: __ZNSt3__112basic_stringIcNS_11char_traitsIcEENS_9allocatorIcEEEC2B7v160006IDnEEPKc, symObjAddr: 0xC394, symBinAddr: 0x10000F46C, symSize: 0x60 }
  - { offsetInCU: 0x2030B, offset: 0x2030B, size: 0x8, addend: 0x0, symName: __ZNSt3__14listI3CowNS_9allocatorIS1_EEEC2B7v160006Ev, symObjAddr: 0xC3F4, symBinAddr: 0x10000F4CC, symSize: 0x3C }
  - { offsetInCU: 0x20335, offset: 0x20335, size: 0x8, addend: 0x0, symName: __ZNSt3__110__list_impI3CowNS_9allocatorIS1_EEEC2Ev, symObjAddr: 0xC430, symBinAddr: 0x10000F508, symSize: 0x50 }
  - { offsetInCU: 0x20361, offset: 0x20361, size: 0x8, addend: 0x0, symName: __ZNSt3__116__list_node_baseI3CowPvEC1B7v160006Ev, symObjAddr: 0xC490, symBinAddr: 0x10000F568, symSize: 0x2C }
  - { offsetInCU: 0x2038B, offset: 0x2038B, size: 0x8, addend: 0x0, symName: __ZNSt3__117__compressed_pairImNS_9allocatorINS_11__list_nodeI3CowPvEEEEEC1B7v160006IiNS_18__default_init_tagEEEOT_OT0_, symObjAddr: 0xC4BC, symBinAddr: 0x10000F594, symSize: 0x3C }
  - { offsetInCU: 0x203E3, offset: 0x203E3, size: 0x8, addend: 0x0, symName: __ZNSt3__116__list_node_baseI3CowPvEC2B7v160006Ev, symObjAddr: 0xC4F8, symBinAddr: 0x10000F5D0, symSize: 0x4C }
  - { offsetInCU: 0x2040D, offset: 0x2040D, size: 0x8, addend: 0x0, symName: __ZNSt3__117__compressed_pairImNS_9allocatorINS_11__list_nodeI3CowPvEEEEEC2B7v160006IiNS_18__default_init_tagEEEOT_OT0_, symObjAddr: 0xC544, symBinAddr: 0x10000F61C, symSize: 0x40 }
  - { offsetInCU: 0x20465, offset: 0x20465, size: 0x8, addend: 0x0, symName: __ZNSt3__122__compressed_pair_elemINS_9allocatorINS_11__list_nodeI3CowPvEEEELi1ELb1EEC2B7v160006ENS_18__default_init_tagE, symObjAddr: 0xC584, symBinAddr: 0x10000F65C, symSize: 0x2C }
  - { offsetInCU: 0x20499, offset: 0x20499, size: 0x8, addend: 0x0, symName: __ZNSt3__19allocatorINS_11__list_nodeI3CowPvEEEC2B7v160006Ev, symObjAddr: 0xC5B0, symBinAddr: 0x10000F688, symSize: 0x2C }
  - { offsetInCU: 0x204C3, offset: 0x204C3, size: 0x8, addend: 0x0, symName: __ZNSt3__116__non_trivial_ifILb1ENS_9allocatorINS_11__list_nodeI3CowPvEEEEEC2B7v160006Ev, symObjAddr: 0xC5DC, symBinAddr: 0x10000F6B4, symSize: 0x14 }
  - { offsetInCU: 0x204ED, offset: 0x204ED, size: 0x8, addend: 0x0, symName: __ZNSt3__19basic_iosIcNS_11char_traitsIcEEEC2B7v160006Ev, symObjAddr: 0xC5F0, symBinAddr: 0x10000F6C8, symSize: 0x44 }
  - { offsetInCU: 0x20517, offset: 0x20517, size: 0x8, addend: 0x0, symName: __ZNSt3__113basic_istreamIcNS_11char_traitsIcEEEC2B7v160006EPNS_15basic_streambufIcS2_EE, symObjAddr: 0xC634, symBinAddr: 0x10000F70C, symSize: 0x64 }
  - { offsetInCU: 0x2055C, offset: 0x2055C, size: 0x8, addend: 0x0, symName: __ZNSt3__113basic_filebufIcNS_11char_traitsIcEEE4openERKNS_12basic_stringIcS2_NS_9allocatorIcEEEEj, symObjAddr: 0xC698, symBinAddr: 0x10000F770, symSize: 0x44 }
  - { offsetInCU: 0x205A0, offset: 0x205A0, size: 0x8, addend: 0x0, symName: __ZNSt3__18ios_baseC2B7v160006Ev, symObjAddr: 0xC6DC, symBinAddr: 0x10000F7B4, symSize: 0x24 }
  - { offsetInCU: 0x205CA, offset: 0x205CA, size: 0x8, addend: 0x0, symName: __ZNSt3__19basic_iosIcNS_11char_traitsIcEEE4initB7v160006EPNS_15basic_streambufIcS2_EE, symObjAddr: 0xC700, symBinAddr: 0x10000F7D8, symSize: 0x44 }
  - { offsetInCU: 0x20601, offset: 0x20601, size: 0x8, addend: 0x0, symName: __ZNKSt3__112basic_stringIcNS_11char_traitsIcEENS_9allocatorIcEEE5c_strB7v160006Ev, symObjAddr: 0xC744, symBinAddr: 0x10000F81C, symSize: 0x24 }
  - { offsetInCU: 0x20627, offset: 0x20627, size: 0x8, addend: 0x0, symName: __ZNKSt3__113basic_filebufIcNS_11char_traitsIcEEE7is_openEv, symObjAddr: 0xC768, symBinAddr: 0x10000F840, symSize: 0x24 }
  - { offsetInCU: 0x2064F, offset: 0x2064F, size: 0x8, addend: 0x0, symName: __ZNKSt3__19basic_iosIcNS_11char_traitsIcEEE4failB7v160006Ev, symObjAddr: 0xC78C, symBinAddr: 0x10000F864, symSize: 0x28 }
  - { offsetInCU: 0x20675, offset: 0x20675, size: 0x8, addend: 0x0, symName: __ZNKSt3__18ios_base4failB7v160006Ev, symObjAddr: 0xC7B4, symBinAddr: 0x10000F88C, symSize: 0x28 }
  - { offsetInCU: 0x2069D, offset: 0x2069D, size: 0x8, addend: 0x0, symName: __ZNSt3__16vectorINS_12basic_stringIcNS_11char_traitsIcEENS_9allocatorIcEEEENS4_IS6_EEED2B7v160006Ev, symObjAddr: 0xC7DC, symBinAddr: 0x10000F8B4, symSize: 0x44 }
  - { offsetInCU: 0x206C7, offset: 0x206C7, size: 0x8, addend: 0x0, symName: __ZNSt3__16vectorINS_12basic_stringIcNS_11char_traitsIcEENS_9allocatorIcEEEENS4_IS6_EEE16__destroy_vectorC1ERS8_, symObjAddr: 0xC820, symBinAddr: 0x10000F8F8, symSize: 0x34 }
  - { offsetInCU: 0x20700, offset: 0x20700, size: 0x8, addend: 0x0, symName: __ZNSt3__16vectorINS_12basic_stringIcNS_11char_traitsIcEENS_9allocatorIcEEEENS4_IS6_EEE16__destroy_vectorclB7v160006Ev, symObjAddr: 0xC854, symBinAddr: 0x10000F92C, symSize: 0x9C }
  - { offsetInCU: 0x20726, offset: 0x20726, size: 0x8, addend: 0x0, symName: __ZNSt3__16vectorINS_12basic_stringIcNS_11char_traitsIcEENS_9allocatorIcEEEENS4_IS6_EEE16__destroy_vectorC2ERS8_, symObjAddr: 0xC8F0, symBinAddr: 0x10000F9C8, symSize: 0x20 }
  - { offsetInCU: 0x2075F, offset: 0x2075F, size: 0x8, addend: 0x0, symName: __ZNKSt3__16vectorINS_12basic_stringIcNS_11char_traitsIcEENS_9allocatorIcEEEENS4_IS6_EEE17__annotate_deleteB7v160006Ev, symObjAddr: 0xC910, symBinAddr: 0x10000F9E8, symSize: 0xD4 }
  - { offsetInCU: 0x20785, offset: 0x20785, size: 0x8, addend: 0x0, symName: __ZNSt3__16vectorINS_12basic_stringIcNS_11char_traitsIcEENS_9allocatorIcEEEENS4_IS6_EEE7__clearB7v160006Ev, symObjAddr: 0xC9F4, symBinAddr: 0x10000FACC, symSize: 0x28 }
  - { offsetInCU: 0x207AB, offset: 0x207AB, size: 0x8, addend: 0x0, symName: __ZNSt3__116allocator_traitsINS_9allocatorINS_12basic_stringIcNS_11char_traitsIcEENS1_IcEEEEEEE10deallocateB7v160006ERS7_PS6_m, symObjAddr: 0xCA1C, symBinAddr: 0x10000FAF4, symSize: 0x34 }
  - { offsetInCU: 0x207ED, offset: 0x207ED, size: 0x8, addend: 0x0, symName: __ZNSt3__16vectorINS_12basic_stringIcNS_11char_traitsIcEENS_9allocatorIcEEEENS4_IS6_EEE7__allocB7v160006Ev, symObjAddr: 0xCA50, symBinAddr: 0x10000FB28, symSize: 0x28 }
  - { offsetInCU: 0x20813, offset: 0x20813, size: 0x8, addend: 0x0, symName: __ZNKSt3__16vectorINS_12basic_stringIcNS_11char_traitsIcEENS_9allocatorIcEEEENS4_IS6_EEE8capacityB7v160006Ev, symObjAddr: 0xCA78, symBinAddr: 0x10000FB50, symSize: 0x40 }
  - { offsetInCU: 0x20839, offset: 0x20839, size: 0x8, addend: 0x0, symName: __ZNKSt3__16vectorINS_12basic_stringIcNS_11char_traitsIcEENS_9allocatorIcEEEENS4_IS6_EEE31__annotate_contiguous_containerB7v160006EPKvSA_SA_SA_, symObjAddr: 0xCAB8, symBinAddr: 0x10000FB90, symSize: 0x20 }
  - { offsetInCU: 0x2088F, offset: 0x2088F, size: 0x8, addend: 0x0, symName: __ZNKSt3__16vectorINS_12basic_stringIcNS_11char_traitsIcEENS_9allocatorIcEEEENS4_IS6_EEE4dataB7v160006Ev, symObjAddr: 0xCAD8, symBinAddr: 0x10000FBB0, symSize: 0x28 }
  - { offsetInCU: 0x208B5, offset: 0x208B5, size: 0x8, addend: 0x0, symName: __ZNKSt3__16vectorINS_12basic_stringIcNS_11char_traitsIcEENS_9allocatorIcEEEENS4_IS6_EEE4sizeB7v160006Ev, symObjAddr: 0xCB00, symBinAddr: 0x10000FBD8, symSize: 0x28 }
  - { offsetInCU: 0x208DB, offset: 0x208DB, size: 0x8, addend: 0x0, symName: __ZNSt3__16vectorINS_12basic_stringIcNS_11char_traitsIcEENS_9allocatorIcEEEENS4_IS6_EEE22__base_destruct_at_endB7v160006EPS6_, symObjAddr: 0xCB3C, symBinAddr: 0x10000FC14, symSize: 0x8C }
  - { offsetInCU: 0x2091F, offset: 0x2091F, size: 0x8, addend: 0x0, symName: __ZNSt3__116allocator_traitsINS_9allocatorINS_12basic_stringIcNS_11char_traitsIcEENS1_IcEEEEEEE7destroyB7v160006IS6_vEEvRS7_PT_, symObjAddr: 0xCBC8, symBinAddr: 0x10000FCA0, symSize: 0x2C }
  - { offsetInCU: 0x2095C, offset: 0x2095C, size: 0x8, addend: 0x0, symName: __ZNSt3__19allocatorINS_12basic_stringIcNS_11char_traitsIcEENS0_IcEEEEE7destroyB7v160006EPS5_, symObjAddr: 0xCBF4, symBinAddr: 0x10000FCCC, symSize: 0x28 }
  - { offsetInCU: 0x20990, offset: 0x20990, size: 0x8, addend: 0x0, symName: __ZNSt3__19allocatorINS_12basic_stringIcNS_11char_traitsIcEENS0_IcEEEEE10deallocateB7v160006EPS5_m, symObjAddr: 0xCC1C, symBinAddr: 0x10000FCF4, symSize: 0x44 }
  - { offsetInCU: 0x209D2, offset: 0x209D2, size: 0x8, addend: 0x0, symName: __ZNSt3__117__compressed_pairIPNS_12basic_stringIcNS_11char_traitsIcEENS_9allocatorIcEEEENS4_IS6_EEE6secondB7v160006Ev, symObjAddr: 0xCC60, symBinAddr: 0x10000FD38, symSize: 0x24 }
  - { offsetInCU: 0x209F8, offset: 0x209F8, size: 0x8, addend: 0x0, symName: __ZNSt3__122__compressed_pair_elemINS_9allocatorINS_12basic_stringIcNS_11char_traitsIcEENS1_IcEEEEEELi1ELb1EE5__getB7v160006Ev, symObjAddr: 0xCC84, symBinAddr: 0x10000FD5C, symSize: 0x14 }
  - { offsetInCU: 0x20A1E, offset: 0x20A1E, size: 0x8, addend: 0x0, symName: __ZNKSt3__16vectorINS_12basic_stringIcNS_11char_traitsIcEENS_9allocatorIcEEEENS4_IS6_EEE9__end_capB7v160006Ev, symObjAddr: 0xCC98, symBinAddr: 0x10000FD70, symSize: 0x28 }
  - { offsetInCU: 0x20A44, offset: 0x20A44, size: 0x8, addend: 0x0, symName: __ZNKSt3__117__compressed_pairIPNS_12basic_stringIcNS_11char_traitsIcEENS_9allocatorIcEEEENS4_IS6_EEE5firstB7v160006Ev, symObjAddr: 0xCCC0, symBinAddr: 0x10000FD98, symSize: 0x24 }
  - { offsetInCU: 0x20A6A, offset: 0x20A6A, size: 0x8, addend: 0x0, symName: __ZNKSt3__122__compressed_pair_elemIPNS_12basic_stringIcNS_11char_traitsIcEENS_9allocatorIcEEEELi0ELb0EE5__getB7v160006Ev, symObjAddr: 0xCCE4, symBinAddr: 0x10000FDBC, symSize: 0x14 }
  - { offsetInCU: 0x20A90, offset: 0x20A90, size: 0x8, addend: 0x0, symName: __ZNSt3__16vectorINS_12basic_stringIcNS_11char_traitsIcEENS_9allocatorIcEEEENS4_IS6_EEE11__make_iterB7v160006EPS6_, symObjAddr: 0xCCF8, symBinAddr: 0x10000FDD0, symSize: 0x34 }
  - { offsetInCU: 0x20AC5, offset: 0x20AC5, size: 0x8, addend: 0x0, symName: __ZNSt3__111__wrap_iterIPNS_12basic_stringIcNS_11char_traitsIcEENS_9allocatorIcEEEEEC1B7v160006EPKvS7_, symObjAddr: 0xCD2C, symBinAddr: 0x10000FE04, symSize: 0x3C }
  - { offsetInCU: 0x20B0B, offset: 0x20B0B, size: 0x8, addend: 0x0, symName: __ZNSt3__111__wrap_iterIPNS_12basic_stringIcNS_11char_traitsIcEENS_9allocatorIcEEEEEC2B7v160006EPKvS7_, symObjAddr: 0xCD68, symBinAddr: 0x10000FE40, symSize: 0x24 }
  - { offsetInCU: 0x20B51, offset: 0x20B51, size: 0x8, addend: 0x0, symName: __ZNSt3__14listI3CowNS_9allocatorIS1_EEE15__allocate_nodeB7v160006ERNS2_INS_11__list_nodeIS1_PvEEEE, symObjAddr: 0xCD8C, symBinAddr: 0x10000FE64, symSize: 0x70 }
  - { offsetInCU: 0x20B95, offset: 0x20B95, size: 0x8, addend: 0x0, symName: __ZNSt3__116allocator_traitsINS_9allocatorINS_11__list_nodeI3CowPvEEEEE9constructB7v160006IS3_JRKS3_EvEEvRS6_PT_DpOT0_, symObjAddr: 0xCDFC, symBinAddr: 0x10000FED4, symSize: 0x34 }
  - { offsetInCU: 0x20BEC, offset: 0x20BEC, size: 0x8, addend: 0x0, symName: __ZNKSt3__110unique_ptrINS_11__list_nodeI3CowPvEENS_22__allocator_destructorINS_9allocatorIS4_EEEEEptB7v160006Ev, symObjAddr: 0xCE30, symBinAddr: 0x10000FF08, symSize: 0x28 }
  - { offsetInCU: 0x20C12, offset: 0x20C12, size: 0x8, addend: 0x0, symName: __ZNSt3__14listI3CowNS_9allocatorIS1_EEE20__link_nodes_at_backEPNS_16__list_node_baseIS1_PvEES8_, symObjAddr: 0xCE58, symBinAddr: 0x10000FF30, symSize: 0x60 }
  - { offsetInCU: 0x20C58, offset: 0x20C58, size: 0x8, addend: 0x0, symName: __ZNKSt3__110unique_ptrINS_11__list_nodeI3CowPvEENS_22__allocator_destructorINS_9allocatorIS4_EEEEE3getB7v160006Ev, symObjAddr: 0xCEB8, symBinAddr: 0x10000FF90, symSize: 0x28 }
  - { offsetInCU: 0x20C7E, offset: 0x20C7E, size: 0x8, addend: 0x0, symName: __ZNSt3__111__list_nodeI3CowPvE9__as_linkB7v160006Ev, symObjAddr: 0xCEE0, symBinAddr: 0x10000FFB8, symSize: 0x24 }
  - { offsetInCU: 0x20CA4, offset: 0x20CA4, size: 0x8, addend: 0x0, symName: __ZNSt3__110unique_ptrINS_11__list_nodeI3CowPvEENS_22__allocator_destructorINS_9allocatorIS4_EEEEE7releaseB7v160006Ev, symObjAddr: 0xCF04, symBinAddr: 0x10000FFDC, symSize: 0x44 }
  - { offsetInCU: 0x20CD9, offset: 0x20CD9, size: 0x8, addend: 0x0, symName: __ZNSt3__110unique_ptrINS_11__list_nodeI3CowPvEENS_22__allocator_destructorINS_9allocatorIS4_EEEEED1B7v160006Ev, symObjAddr: 0xCF48, symBinAddr: 0x100010020, symSize: 0x2C }
  - { offsetInCU: 0x20D03, offset: 0x20D03, size: 0x8, addend: 0x0, symName: __ZNSt3__116allocator_traitsINS_9allocatorINS_11__list_nodeI3CowPvEEEEE8allocateB7v160006ERS6_m, symObjAddr: 0xCF74, symBinAddr: 0x10001004C, symSize: 0x2C }
  - { offsetInCU: 0x20D36, offset: 0x20D36, size: 0x8, addend: 0x0, symName: __ZNSt3__122__allocator_destructorINS_9allocatorINS_11__list_nodeI3CowPvEEEEEC1B7v160006ERS6_m, symObjAddr: 0xCFA0, symBinAddr: 0x100010078, symSize: 0x3C }
  - { offsetInCU: 0x20D82, offset: 0x20D82, size: 0x8, addend: 0x0, symName: __ZNSt3__110unique_ptrINS_11__list_nodeI3CowPvEENS_22__allocator_destructorINS_9allocatorIS4_EEEEEC1B7v160006ILb1EvEEPS4_NS_16__dependent_typeINS_27__unique_ptr_deleter_sfinaeIS8_EEXT_EE20__good_rval_ref_typeE, symObjAddr: 0xCFDC, symBinAddr: 0x1000100B4, symSize: 0x3C }
  - { offsetInCU: 0x20DD3, offset: 0x20DD3, size: 0x8, addend: 0x0, symName: __ZNSt3__19allocatorINS_11__list_nodeI3CowPvEEE8allocateB7v160006Em, symObjAddr: 0xD018, symBinAddr: 0x1000100F0, symSize: 0x58 }
  - { offsetInCU: 0x20E12, offset: 0x20E12, size: 0x8, addend: 0x0, symName: __ZNSt3__116allocator_traitsINS_9allocatorINS_11__list_nodeI3CowPvEEEEE8max_sizeB7v160006IS6_vEEmRKS6_, symObjAddr: 0xD070, symBinAddr: 0x100010148, symSize: 0x24 }
  - { offsetInCU: 0x20E40, offset: 0x20E40, size: 0x8, addend: 0x0, symName: __ZNKSt3__19allocatorINS_11__list_nodeI3CowPvEEE8max_sizeB7v160006Ev, symObjAddr: 0xD094, symBinAddr: 0x10001016C, symSize: 0x14 }
  - { offsetInCU: 0x20E66, offset: 0x20E66, size: 0x8, addend: 0x0, symName: __ZNSt3__122__allocator_destructorINS_9allocatorINS_11__list_nodeI3CowPvEEEEEC2B7v160006ERS6_m, symObjAddr: 0xD0A8, symBinAddr: 0x100010180, symSize: 0x2C }
  - { offsetInCU: 0x20EAC, offset: 0x20EAC, size: 0x8, addend: 0x0, symName: __ZNSt3__110unique_ptrINS_11__list_nodeI3CowPvEENS_22__allocator_destructorINS_9allocatorIS4_EEEEEC2B7v160006ILb1EvEEPS4_NS_16__dependent_typeINS_27__unique_ptr_deleter_sfinaeIS8_EEXT_EE20__good_rval_ref_typeE, symObjAddr: 0xD0D4, symBinAddr: 0x1000101AC, symSize: 0x48 }
  - { offsetInCU: 0x20EFD, offset: 0x20EFD, size: 0x8, addend: 0x0, symName: __ZNSt3__117__compressed_pairIPNS_11__list_nodeI3CowPvEENS_22__allocator_destructorINS_9allocatorIS4_EEEEEC1B7v160006IRS5_S9_EEOT_OT0_, symObjAddr: 0xD11C, symBinAddr: 0x1000101F4, symSize: 0x3C }
  - { offsetInCU: 0x20F55, offset: 0x20F55, size: 0x8, addend: 0x0, symName: __ZNSt3__117__compressed_pairIPNS_11__list_nodeI3CowPvEENS_22__allocator_destructorINS_9allocatorIS4_EEEEEC2B7v160006IRS5_S9_EEOT_OT0_, symObjAddr: 0xD158, symBinAddr: 0x100010230, symSize: 0x48 }
  - { offsetInCU: 0x20FAD, offset: 0x20FAD, size: 0x8, addend: 0x0, symName: __ZNSt3__122__compressed_pair_elemIPNS_11__list_nodeI3CowPvEELi0ELb0EEC2B7v160006IRS5_vEEOT_, symObjAddr: 0xD1A0, symBinAddr: 0x100010278, symSize: 0x24 }
  - { offsetInCU: 0x20FEF, offset: 0x20FEF, size: 0x8, addend: 0x0, symName: __ZNSt3__122__compressed_pair_elemINS_22__allocator_destructorINS_9allocatorINS_11__list_nodeI3CowPvEEEEEELi1ELb0EEC2B7v160006IS8_vEEOT_, symObjAddr: 0xD1C4, symBinAddr: 0x10001029C, symSize: 0x24 }
  - { offsetInCU: 0x21031, offset: 0x21031, size: 0x8, addend: 0x0, symName: __ZNSt3__19allocatorINS_11__list_nodeI3CowPvEEE9constructB7v160006IS2_JRKS2_EEEvPT_DpOT0_, symObjAddr: 0xD1E8, symBinAddr: 0x1000102C0, symSize: 0x30 }
  - { offsetInCU: 0x21087, offset: 0x21087, size: 0x8, addend: 0x0, symName: __ZNKSt3__117__compressed_pairIPNS_11__list_nodeI3CowPvEENS_22__allocator_destructorINS_9allocatorIS4_EEEEE5firstB7v160006Ev, symObjAddr: 0xD218, symBinAddr: 0x1000102F0, symSize: 0x24 }
  - { offsetInCU: 0x210AD, offset: 0x210AD, size: 0x8, addend: 0x0, symName: __ZNKSt3__122__compressed_pair_elemIPNS_11__list_nodeI3CowPvEELi0ELb0EE5__getB7v160006Ev, symObjAddr: 0xD23C, symBinAddr: 0x100010314, symSize: 0x14 }
  - { offsetInCU: 0x210D3, offset: 0x210D3, size: 0x8, addend: 0x0, symName: __ZNSt3__117__compressed_pairIPNS_11__list_nodeI3CowPvEENS_22__allocator_destructorINS_9allocatorIS4_EEEEE5firstB7v160006Ev, symObjAddr: 0xD250, symBinAddr: 0x100010328, symSize: 0x24 }
  - { offsetInCU: 0x210F9, offset: 0x210F9, size: 0x8, addend: 0x0, symName: __ZNSt3__122__compressed_pair_elemIPNS_11__list_nodeI3CowPvEELi0ELb0EE5__getB7v160006Ev, symObjAddr: 0xD274, symBinAddr: 0x10001034C, symSize: 0x14 }
  - { offsetInCU: 0x2111F, offset: 0x2111F, size: 0x8, addend: 0x0, symName: __ZNSt3__110unique_ptrINS_11__list_nodeI3CowPvEENS_22__allocator_destructorINS_9allocatorIS4_EEEEED2B7v160006Ev, symObjAddr: 0xD288, symBinAddr: 0x100010360, symSize: 0x30 }
  - { offsetInCU: 0x21149, offset: 0x21149, size: 0x8, addend: 0x0, symName: __ZNSt3__110unique_ptrINS_11__list_nodeI3CowPvEENS_22__allocator_destructorINS_9allocatorIS4_EEEEE5resetB7v160006EPS4_, symObjAddr: 0xD2B8, symBinAddr: 0x100010390, symSize: 0x78 }
  - { offsetInCU: 0x2118D, offset: 0x2118D, size: 0x8, addend: 0x0, symName: __ZNSt3__117__compressed_pairIPNS_11__list_nodeI3CowPvEENS_22__allocator_destructorINS_9allocatorIS4_EEEEE6secondB7v160006Ev, symObjAddr: 0xD330, symBinAddr: 0x100010408, symSize: 0x28 }
  - { offsetInCU: 0x211B3, offset: 0x211B3, size: 0x8, addend: 0x0, symName: __ZNSt3__122__allocator_destructorINS_9allocatorINS_11__list_nodeI3CowPvEEEEEclB7v160006EPS5_, symObjAddr: 0xD358, symBinAddr: 0x100010430, symSize: 0x34 }
  - { offsetInCU: 0x211E7, offset: 0x211E7, size: 0x8, addend: 0x0, symName: __ZNSt3__122__compressed_pair_elemINS_22__allocator_destructorINS_9allocatorINS_11__list_nodeI3CowPvEEEEEELi1ELb0EE5__getB7v160006Ev, symObjAddr: 0xD38C, symBinAddr: 0x100010464, symSize: 0x14 }
  - { offsetInCU: 0x2120D, offset: 0x2120D, size: 0x8, addend: 0x0, symName: __ZNSt3__110__list_impI3CowNS_9allocatorIS1_EEE5beginB7v160006Ev, symObjAddr: 0xD3A0, symBinAddr: 0x100010478, symSize: 0x30 }
  - { offsetInCU: 0x21233, offset: 0x21233, size: 0x8, addend: 0x0, symName: __ZNSt3__115__list_iteratorI3CowPvEC1B7v160006EPNS_16__list_node_baseIS1_S2_EEPKv, symObjAddr: 0xD3D0, symBinAddr: 0x1000104A8, symSize: 0x3C }
  - { offsetInCU: 0x2127B, offset: 0x2127B, size: 0x8, addend: 0x0, symName: __ZNSt3__115__list_iteratorI3CowPvEC2B7v160006EPNS_16__list_node_baseIS1_S2_EEPKv, symObjAddr: 0xD40C, symBinAddr: 0x1000104E4, symSize: 0x24 }
  - { offsetInCU: 0x212C3, offset: 0x212C3, size: 0x8, addend: 0x0, symName: __ZNSt3__110__list_impI3CowNS_9allocatorIS1_EEE3endB7v160006Ev, symObjAddr: 0xD430, symBinAddr: 0x100010508, symSize: 0x3C }
  - { offsetInCU: 0x212E9, offset: 0x212E9, size: 0x8, addend: 0x0, symName: __ZNSt3__112basic_stringIcNS_11char_traitsIcEENS_9allocatorIcEEE14__erase_to_endB7v160006Em, symObjAddr: 0xD49C, symBinAddr: 0x100010574, symSize: 0x40 }
  - { offsetInCU: 0x2131E, offset: 0x2131E, size: 0x8, addend: 0x0, symName: __ZNSt3__112basic_stringIcNS_11char_traitsIcEENS_9allocatorIcEEE19__null_terminate_atB7v160006EPcm, symObjAddr: 0xD4DC, symBinAddr: 0x1000105B4, symSize: 0x5C }
  - { offsetInCU: 0x21362, offset: 0x21362, size: 0x8, addend: 0x0, symName: __ZNSt3__112basic_stringIcNS_11char_traitsIcEENS_9allocatorIcEEE13__get_pointerB7v160006Ev, symObjAddr: 0xD54C, symBinAddr: 0x100010624, symSize: 0x54 }
  - { offsetInCU: 0x21388, offset: 0x21388, size: 0x8, addend: 0x0, symName: __ZNSt3__112basic_stringIcNS_11char_traitsIcEENS_9allocatorIcEEE10__set_sizeB7v160006Em, symObjAddr: 0xD5A0, symBinAddr: 0x100010678, symSize: 0x54 }
  - { offsetInCU: 0x213BD, offset: 0x213BD, size: 0x8, addend: 0x0, symName: __ZNSt3__112basic_stringIcNS_11char_traitsIcEENS_9allocatorIcEEE27__invalidate_iterators_pastB7v160006Em, symObjAddr: 0xD5F4, symBinAddr: 0x1000106CC, symSize: 0x14 }
  - { offsetInCU: 0x213F4, offset: 0x213F4, size: 0x8, addend: 0x0, symName: __ZNSt3__111char_traitsIcE6assignERcRKc, symObjAddr: 0xD608, symBinAddr: 0x1000106E0, symSize: 0x24 }
  - { offsetInCU: 0x21425, offset: 0x21425, size: 0x8, addend: 0x0, symName: __ZNSt3__112basic_stringIcNS_11char_traitsIcEENS_9allocatorIcEEE15__set_long_sizeB7v160006Em, symObjAddr: 0xD62C, symBinAddr: 0x100010704, symSize: 0x38 }
  - { offsetInCU: 0x2145A, offset: 0x2145A, size: 0x8, addend: 0x0, symName: __ZNSt3__112basic_stringIcNS_11char_traitsIcEENS_9allocatorIcEEE16__set_short_sizeB7v160006Em, symObjAddr: 0xD664, symBinAddr: 0x10001073C, symSize: 0x78 }
  - { offsetInCU: 0x2148F, offset: 0x2148F, size: 0x8, addend: 0x0, symName: __ZNSt3__112basic_stringIcNS_11char_traitsIcEENS_9allocatorIcEEE18__get_long_pointerB7v160006Ev, symObjAddr: 0xD6DC, symBinAddr: 0x1000107B4, symSize: 0x28 }
  - { offsetInCU: 0x214B5, offset: 0x214B5, size: 0x8, addend: 0x0, symName: __ZNSt3__112basic_stringIcNS_11char_traitsIcEENS_9allocatorIcEEE19__get_short_pointerB7v160006Ev, symObjAddr: 0xD704, symBinAddr: 0x1000107DC, symSize: 0x28 }
  - { offsetInCU: 0x214DB, offset: 0x214DB, size: 0x8, addend: 0x0, symName: __ZNSt3__114pointer_traitsIPcE10pointer_toB7v160006ERc, symObjAddr: 0xD72C, symBinAddr: 0x100010804, symSize: 0x14 }
  - { offsetInCU: 0x214FE, offset: 0x214FE, size: 0x8, addend: 0x0, symName: __ZNSt3__112basic_stringIcNS_11char_traitsIcEENS_9allocatorIcEEEC1B7v160006EOS5_, symObjAddr: 0xD740, symBinAddr: 0x100010818, symSize: 0x34 }
  - { offsetInCU: 0x21537, offset: 0x21537, size: 0x8, addend: 0x0, symName: __ZNSt3__112basic_stringIcNS_11char_traitsIcEENS_9allocatorIcEEEC2B7v160006EOS5_, symObjAddr: 0xD774, symBinAddr: 0x10001084C, symSize: 0x80 }
  - { offsetInCU: 0x21570, offset: 0x21570, size: 0x8, addend: 0x0, symName: __ZNSt3__112basic_stringIcNS_11char_traitsIcEENS_9allocatorIcEEE6appendB7v160006ERKS5_, symObjAddr: 0xD808, symBinAddr: 0x1000108E0, symSize: 0x4C }
  - { offsetInCU: 0x215A5, offset: 0x215A5, size: 0x8, addend: 0x0, symName: __ZNSt3__113basic_ostreamIcNS_11char_traitsIcEEEC2B7v160006EPNS_15basic_streambufIcS2_EE, symObjAddr: 0xD854, symBinAddr: 0x10001092C, symSize: 0x60 }
  - { offsetInCU: 0x215EA, offset: 0x215EA, size: 0x8, addend: 0x0, symName: __ZNSt3__16vectorINS_12basic_stringIcNS_11char_traitsIcEENS_9allocatorIcEEEENS4_IS6_EEEC2B7v160006Ev, symObjAddr: 0xD8B4, symBinAddr: 0x10001098C, symSize: 0x58 }
  - { offsetInCU: 0x2161A, offset: 0x2161A, size: 0x8, addend: 0x0, symName: __ZNSt3__117__compressed_pairIPNS_12basic_stringIcNS_11char_traitsIcEENS_9allocatorIcEEEENS4_IS6_EEEC1B7v160006IDnNS_18__default_init_tagEEEOT_OT0_, symObjAddr: 0xD90C, symBinAddr: 0x1000109E4, symSize: 0x3C }
  - { offsetInCU: 0x21672, offset: 0x21672, size: 0x8, addend: 0x0, symName: __ZNSt3__117__compressed_pairIPNS_12basic_stringIcNS_11char_traitsIcEENS_9allocatorIcEEEENS4_IS6_EEEC2B7v160006IDnNS_18__default_init_tagEEEOT_OT0_, symObjAddr: 0xD958, symBinAddr: 0x100010A30, symSize: 0x40 }
  - { offsetInCU: 0x216CA, offset: 0x216CA, size: 0x8, addend: 0x0, symName: __ZNSt3__122__compressed_pair_elemIPNS_12basic_stringIcNS_11char_traitsIcEENS_9allocatorIcEEEELi0ELb0EEC2B7v160006IDnvEEOT_, symObjAddr: 0xD998, symBinAddr: 0x100010A70, symSize: 0x1C }
  - { offsetInCU: 0x2170C, offset: 0x2170C, size: 0x8, addend: 0x0, symName: __ZNSt3__122__compressed_pair_elemINS_9allocatorINS_12basic_stringIcNS_11char_traitsIcEENS1_IcEEEEEELi1ELb1EEC2B7v160006ENS_18__default_init_tagE, symObjAddr: 0xD9B4, symBinAddr: 0x100010A8C, symSize: 0x2C }
  - { offsetInCU: 0x21740, offset: 0x21740, size: 0x8, addend: 0x0, symName: __ZNSt3__19allocatorINS_12basic_stringIcNS_11char_traitsIcEENS0_IcEEEEEC2B7v160006Ev, symObjAddr: 0xD9E0, symBinAddr: 0x100010AB8, symSize: 0x2C }
  - { offsetInCU: 0x2176A, offset: 0x2176A, size: 0x8, addend: 0x0, symName: __ZNSt3__116__non_trivial_ifILb1ENS_9allocatorINS_12basic_stringIcNS_11char_traitsIcEENS1_IcEEEEEEEC2B7v160006Ev, symObjAddr: 0xDA0C, symBinAddr: 0x100010AE4, symSize: 0x14 }
  - { offsetInCU: 0x21794, offset: 0x21794, size: 0x8, addend: 0x0, symName: __ZNSt3__115basic_stringbufIcNS_11char_traitsIcEENS_9allocatorIcEEEC1B7v160006ERKNS_12basic_stringIcS2_S4_EEj, symObjAddr: 0xDA20, symBinAddr: 0x100010AF8, symSize: 0x3C }
  - { offsetInCU: 0x217DA, offset: 0x217DA, size: 0x8, addend: 0x0, symName: __ZNSt3__115basic_stringbufIcNS_11char_traitsIcEENS_9allocatorIcEEEC2B7v160006ERKNS_12basic_stringIcS2_S4_EEj, symObjAddr: 0xDA5C, symBinAddr: 0x100010B34, symSize: 0xB4 }
  - { offsetInCU: 0x21820, offset: 0x21820, size: 0x8, addend: 0x0, symName: __ZNKSt3__112basic_stringIcNS_11char_traitsIcEENS_9allocatorIcEEE13get_allocatorB7v160006Ev, symObjAddr: 0xDB10, symBinAddr: 0x100010BE8, symSize: 0x24 }
  - { offsetInCU: 0x21846, offset: 0x21846, size: 0x8, addend: 0x0, symName: __ZNSt3__112basic_stringIcNS_11char_traitsIcEENS_9allocatorIcEEEC1B7v160006ERKS4_, symObjAddr: 0xDB34, symBinAddr: 0x100010C0C, symSize: 0x34 }
  - { offsetInCU: 0x2187F, offset: 0x2187F, size: 0x8, addend: 0x0, symName: __ZNKSt3__112basic_stringIcNS_11char_traitsIcEENS_9allocatorIcEEE7__allocB7v160006Ev, symObjAddr: 0xDB68, symBinAddr: 0x100010C40, symSize: 0x24 }
  - { offsetInCU: 0x218A5, offset: 0x218A5, size: 0x8, addend: 0x0, symName: __ZNKSt3__117__compressed_pairINS_12basic_stringIcNS_11char_traitsIcEENS_9allocatorIcEEE5__repES5_E6secondB7v160006Ev, symObjAddr: 0xDB8C, symBinAddr: 0x100010C64, symSize: 0x24 }
  - { offsetInCU: 0x218CB, offset: 0x218CB, size: 0x8, addend: 0x0, symName: __ZNKSt3__122__compressed_pair_elemINS_9allocatorIcEELi1ELb1EE5__getB7v160006Ev, symObjAddr: 0xDBB0, symBinAddr: 0x100010C88, symSize: 0x14 }
  - { offsetInCU: 0x218F1, offset: 0x218F1, size: 0x8, addend: 0x0, symName: __ZNSt3__112basic_stringIcNS_11char_traitsIcEENS_9allocatorIcEEEC2B7v160006ERKS4_, symObjAddr: 0xDBC4, symBinAddr: 0x100010C9C, symSize: 0x50 }
  - { offsetInCU: 0x2192A, offset: 0x2192A, size: 0x8, addend: 0x0, symName: __ZNSt3__117__compressed_pairINS_12basic_stringIcNS_11char_traitsIcEENS_9allocatorIcEEE5__repES5_EC1B7v160006INS_18__default_init_tagERKS5_EEOT_OT0_, symObjAddr: 0xDC14, symBinAddr: 0x100010CEC, symSize: 0x3C }
  - { offsetInCU: 0x21982, offset: 0x21982, size: 0x8, addend: 0x0, symName: __ZNSt3__117__compressed_pairINS_12basic_stringIcNS_11char_traitsIcEENS_9allocatorIcEEE5__repES5_EC2B7v160006INS_18__default_init_tagERKS5_EEOT_OT0_, symObjAddr: 0xDC50, symBinAddr: 0x100010D28, symSize: 0x40 }
  - { offsetInCU: 0x219DA, offset: 0x219DA, size: 0x8, addend: 0x0, symName: __ZNSt3__122__compressed_pair_elemINS_9allocatorIcEELi1ELb1EEC2B7v160006IRKS2_vEEOT_, symObjAddr: 0xDC90, symBinAddr: 0x100010D68, symSize: 0x18 }
  - { offsetInCU: 0x21A3D, offset: 0x21A3D, size: 0x8, addend: 0x0, symName: __ZNKSt3__113basic_istreamIcNS_11char_traitsIcEEE6sentrycvbB7v160006Ev, symObjAddr: 0xDCA8, symBinAddr: 0x100010D80, symSize: 0x1C }
  - { offsetInCU: 0x21A63, offset: 0x21A63, size: 0x8, addend: 0x0, symName: __ZNSt3__112basic_stringIcNS_11char_traitsIcEENS_9allocatorIcEEE5clearB7v160006Ev, symObjAddr: 0xDCC4, symBinAddr: 0x100010D9C, symSize: 0x88 }
  - { offsetInCU: 0x21A8B, offset: 0x21A8B, size: 0x8, addend: 0x0, symName: __ZNSt3__115basic_streambufIcNS_11char_traitsIcEEE6sbumpcB7v160006Ev, symObjAddr: 0xDD4C, symBinAddr: 0x100010E24, symSize: 0x78 }
  - { offsetInCU: 0x21AB1, offset: 0x21AB1, size: 0x8, addend: 0x0, symName: __ZNSt3__111char_traitsIcE12to_char_typeEi, symObjAddr: 0xDDC4, symBinAddr: 0x100010E9C, symSize: 0x18 }
  - { offsetInCU: 0x21AD4, offset: 0x21AD4, size: 0x8, addend: 0x0, symName: __ZNSt3__111char_traitsIcE2eqEcc, symObjAddr: 0xDDDC, symBinAddr: 0x100010EB4, symSize: 0x28 }
  - { offsetInCU: 0x21B05, offset: 0x21B05, size: 0x8, addend: 0x0, symName: __ZNKSt3__112basic_stringIcNS_11char_traitsIcEENS_9allocatorIcEEE8max_sizeB7v160006Ev, symObjAddr: 0xDE04, symBinAddr: 0x100010EDC, symSize: 0xAC }
  - { offsetInCU: 0x21B57, offset: 0x21B57, size: 0x8, addend: 0x0, symName: __ZNSt3__18ios_base18__setstate_nothrowB7v160006Ej, symObjAddr: 0xDEB0, symBinAddr: 0x100010F88, symSize: 0x64 }
  - { offsetInCU: 0x21B8C, offset: 0x21B8C, size: 0x8, addend: 0x0, symName: __ZNKSt3__19basic_iosIcNS_11char_traitsIcEEE10exceptionsB7v160006Ev, symObjAddr: 0xDF14, symBinAddr: 0x100010FEC, symSize: 0x24 }
  - { offsetInCU: 0x21BB2, offset: 0x21BB2, size: 0x8, addend: 0x0, symName: __ZNSt3__111char_traitsIcE11to_int_typeEc, symObjAddr: 0xDF48, symBinAddr: 0x100011020, symSize: 0x14 }
  - { offsetInCU: 0x21BE0, offset: 0x21BE0, size: 0x8, addend: 0x0, symName: __ZNSt3__116allocator_traitsINS_9allocatorIcEEE8max_sizeB7v160006IS2_vEEmRKS2_, symObjAddr: 0xDF5C, symBinAddr: 0x100011034, symSize: 0x24 }
  - { offsetInCU: 0x21C0E, offset: 0x21C0E, size: 0x8, addend: 0x0, symName: __ZNSt3__114numeric_limitsImE3maxB7v160006Ev, symObjAddr: 0xDF80, symBinAddr: 0x100011058, symSize: 0x14 }
  - { offsetInCU: 0x21C22, offset: 0x21C22, size: 0x8, addend: 0x0, symName: __ZNKSt3__19allocatorIcE8max_sizeB7v160006Ev, symObjAddr: 0xDF94, symBinAddr: 0x10001106C, symSize: 0x14 }
  - { offsetInCU: 0x21C48, offset: 0x21C48, size: 0x8, addend: 0x0, symName: __ZNSt3__123__libcpp_numeric_limitsImLb1EE3maxB7v160006Ev, symObjAddr: 0xDFA8, symBinAddr: 0x100011080, symSize: 0x8 }
  - { offsetInCU: 0x21C5C, offset: 0x21C5C, size: 0x8, addend: 0x0, symName: __ZNKSt3__18ios_base10exceptionsB7v160006Ev, symObjAddr: 0xDFB0, symBinAddr: 0x100011088, symSize: 0x18 }
  - { offsetInCU: 0x21C84, offset: 0x21C84, size: 0x8, addend: 0x0, symName: __ZNSt3__16vectorINS_12basic_stringIcNS_11char_traitsIcEENS_9allocatorIcEEEENS4_IS6_EEE9__end_capB7v160006Ev, symObjAddr: 0xDFC8, symBinAddr: 0x1000110A0, symSize: 0x28 }
  - { offsetInCU: 0x21CAA, offset: 0x21CAA, size: 0x8, addend: 0x0, symName: __ZNSt3__16vectorINS_12basic_stringIcNS_11char_traitsIcEENS_9allocatorIcEEEENS4_IS6_EEE22__construct_one_at_endB7v160006IJRKS6_EEEvDpOT_, symObjAddr: 0xDFF0, symBinAddr: 0x1000110C8, symSize: 0x90 }
  - { offsetInCU: 0x21CF9, offset: 0x21CF9, size: 0x8, addend: 0x0, symName: __ZNSt3__16vectorINS_12basic_stringIcNS_11char_traitsIcEENS_9allocatorIcEEEENS4_IS6_EEE21__push_back_slow_pathIRKS6_EEvOT_, symObjAddr: 0xE080, symBinAddr: 0x100011158, symSize: 0xD8 }
  - { offsetInCU: 0x21D57, offset: 0x21D57, size: 0x8, addend: 0x0, symName: __ZNSt3__117__compressed_pairIPNS_12basic_stringIcNS_11char_traitsIcEENS_9allocatorIcEEEENS4_IS6_EEE5firstB7v160006Ev, symObjAddr: 0xE158, symBinAddr: 0x100011230, symSize: 0x24 }
  - { offsetInCU: 0x21D7D, offset: 0x21D7D, size: 0x8, addend: 0x0, symName: __ZNSt3__122__compressed_pair_elemIPNS_12basic_stringIcNS_11char_traitsIcEENS_9allocatorIcEEEELi0ELb0EE5__getB7v160006Ev, symObjAddr: 0xE17C, symBinAddr: 0x100011254, symSize: 0x14 }
  - { offsetInCU: 0x21DBE, offset: 0x21DBE, size: 0x8, addend: 0x0, symName: __ZNSt3__16vectorINS_12basic_stringIcNS_11char_traitsIcEENS_9allocatorIcEEEENS4_IS6_EEE21_ConstructTransactionC1B7v160006ERS8_m, symObjAddr: 0xE190, symBinAddr: 0x100011268, symSize: 0x3C }
  - { offsetInCU: 0x21E06, offset: 0x21E06, size: 0x8, addend: 0x0, symName: __ZNSt3__116allocator_traitsINS_9allocatorINS_12basic_stringIcNS_11char_traitsIcEENS1_IcEEEEEEE9constructB7v160006IS6_JRKS6_EvEEvRS7_PT_DpOT0_, symObjAddr: 0xE1CC, symBinAddr: 0x1000112A4, symSize: 0x34 }
  - { offsetInCU: 0x21E5D, offset: 0x21E5D, size: 0x8, addend: 0x0, symName: __ZNSt3__16vectorINS_12basic_stringIcNS_11char_traitsIcEENS_9allocatorIcEEEENS4_IS6_EEE21_ConstructTransactionD1B7v160006Ev, symObjAddr: 0xE200, symBinAddr: 0x1000112D8, symSize: 0x2C }
  - { offsetInCU: 0x21E87, offset: 0x21E87, size: 0x8, addend: 0x0, symName: __ZNSt3__16vectorINS_12basic_stringIcNS_11char_traitsIcEENS_9allocatorIcEEEENS4_IS6_EEE21_ConstructTransactionC2B7v160006ERS8_m, symObjAddr: 0xE22C, symBinAddr: 0x100011304, symSize: 0x4C }
  - { offsetInCU: 0x21ECF, offset: 0x21ECF, size: 0x8, addend: 0x0, symName: __ZNSt3__19allocatorINS_12basic_stringIcNS_11char_traitsIcEENS0_IcEEEEE9constructB7v160006IS5_JRKS5_EEEvPT_DpOT0_, symObjAddr: 0xE278, symBinAddr: 0x100011350, symSize: 0x30 }
  - { offsetInCU: 0x21F25, offset: 0x21F25, size: 0x8, addend: 0x0, symName: __ZNSt3__16vectorINS_12basic_stringIcNS_11char_traitsIcEENS_9allocatorIcEEEENS4_IS6_EEE21_ConstructTransactionD2B7v160006Ev, symObjAddr: 0xE2A8, symBinAddr: 0x100011380, symSize: 0x20 }
  - { offsetInCU: 0x21F4F, offset: 0x21F4F, size: 0x8, addend: 0x0, symName: __ZNKSt3__16vectorINS_12basic_stringIcNS_11char_traitsIcEENS_9allocatorIcEEEENS4_IS6_EEE11__recommendB7v160006Em, symObjAddr: 0xE2C8, symBinAddr: 0x1000113A0, symSize: 0xB4 }
  - { offsetInCU: 0x21FA4, offset: 0x21FA4, size: 0x8, addend: 0x0, symName: __ZNSt3__114__split_bufferINS_12basic_stringIcNS_11char_traitsIcEENS_9allocatorIcEEEERNS4_IS6_EEEC1EmmS8_, symObjAddr: 0xE37C, symBinAddr: 0x100011454, symSize: 0x44 }
  - { offsetInCU: 0x21FFA, offset: 0x21FFA, size: 0x8, addend: 0x0, symName: __ZNSt3__114__split_bufferINS_12basic_stringIcNS_11char_traitsIcEENS_9allocatorIcEEEERNS4_IS6_EEED1Ev, symObjAddr: 0xE4D8, symBinAddr: 0x1000115B0, symSize: 0x2C }
  - { offsetInCU: 0x22026, offset: 0x22026, size: 0x8, addend: 0x0, symName: __ZNKSt3__16vectorINS_12basic_stringIcNS_11char_traitsIcEENS_9allocatorIcEEEENS4_IS6_EEE8max_sizeEv, symObjAddr: 0xE504, symBinAddr: 0x1000115DC, symSize: 0x60 }
  - { offsetInCU: 0x2204E, offset: 0x2204E, size: 0x8, addend: 0x0, symName: __ZNKSt3__16vectorINS_12basic_stringIcNS_11char_traitsIcEENS_9allocatorIcEEEENS4_IS6_EEE20__throw_length_errorB7v160006Ev, symObjAddr: 0xE564, symBinAddr: 0x10001163C, symSize: 0x1C }
  - { offsetInCU: 0x2207F, offset: 0x2207F, size: 0x8, addend: 0x0, symName: __ZNSt3__116allocator_traitsINS_9allocatorINS_12basic_stringIcNS_11char_traitsIcEENS1_IcEEEEEEE8max_sizeB7v160006IS7_vEEmRKS7_, symObjAddr: 0xE5AC, symBinAddr: 0x100011684, symSize: 0x24 }
  - { offsetInCU: 0x220AD, offset: 0x220AD, size: 0x8, addend: 0x0, symName: __ZNKSt3__16vectorINS_12basic_stringIcNS_11char_traitsIcEENS_9allocatorIcEEEENS4_IS6_EEE7__allocB7v160006Ev, symObjAddr: 0xE5D0, symBinAddr: 0x1000116A8, symSize: 0x28 }
  - { offsetInCU: 0x220D3, offset: 0x220D3, size: 0x8, addend: 0x0, symName: __ZNSt3__114numeric_limitsIlE3maxB7v160006Ev, symObjAddr: 0xE5F8, symBinAddr: 0x1000116D0, symSize: 0x14 }
  - { offsetInCU: 0x220E7, offset: 0x220E7, size: 0x8, addend: 0x0, symName: __ZNKSt3__19allocatorINS_12basic_stringIcNS_11char_traitsIcEENS0_IcEEEEE8max_sizeB7v160006Ev, symObjAddr: 0xE60C, symBinAddr: 0x1000116E4, symSize: 0x18 }
  - { offsetInCU: 0x2210D, offset: 0x2210D, size: 0x8, addend: 0x0, symName: __ZNKSt3__117__compressed_pairIPNS_12basic_stringIcNS_11char_traitsIcEENS_9allocatorIcEEEENS4_IS6_EEE6secondB7v160006Ev, symObjAddr: 0xE624, symBinAddr: 0x1000116FC, symSize: 0x24 }
  - { offsetInCU: 0x22133, offset: 0x22133, size: 0x8, addend: 0x0, symName: __ZNKSt3__122__compressed_pair_elemINS_9allocatorINS_12basic_stringIcNS_11char_traitsIcEENS1_IcEEEEEELi1ELb1EE5__getB7v160006Ev, symObjAddr: 0xE648, symBinAddr: 0x100011720, symSize: 0x14 }
  - { offsetInCU: 0x22159, offset: 0x22159, size: 0x8, addend: 0x0, symName: __ZNSt3__123__libcpp_numeric_limitsIlLb1EE3maxB7v160006Ev, symObjAddr: 0xE65C, symBinAddr: 0x100011734, symSize: 0x8 }
  - { offsetInCU: 0x2216D, offset: 0x2216D, size: 0x8, addend: 0x0, symName: __ZNSt12length_errorC1B7v160006EPKc, symObjAddr: 0xE6C8, symBinAddr: 0x1000117A0, symSize: 0x34 }
  - { offsetInCU: 0x221A5, offset: 0x221A5, size: 0x8, addend: 0x0, symName: __ZNSt12length_errorC2B7v160006EPKc, symObjAddr: 0xE6FC, symBinAddr: 0x1000117D4, symSize: 0x4C }
  - { offsetInCU: 0x221DD, offset: 0x221DD, size: 0x8, addend: 0x0, symName: __ZNSt3__114__split_bufferINS_12basic_stringIcNS_11char_traitsIcEENS_9allocatorIcEEEERNS4_IS6_EEEC2EmmS8_, symObjAddr: 0xE79C, symBinAddr: 0x100011874, symSize: 0xE0 }
  - { offsetInCU: 0x22250, offset: 0x22250, size: 0x8, addend: 0x0, symName: __ZNSt3__117__compressed_pairIPNS_12basic_stringIcNS_11char_traitsIcEENS_9allocatorIcEEEERNS4_IS6_EEEC1B7v160006IDnS9_EEOT_OT0_, symObjAddr: 0xE87C, symBinAddr: 0x100011954, symSize: 0x3C }
  - { offsetInCU: 0x222A8, offset: 0x222A8, size: 0x8, addend: 0x0, symName: __ZNSt3__114__split_bufferINS_12basic_stringIcNS_11char_traitsIcEENS_9allocatorIcEEEERNS4_IS6_EEE7__allocB7v160006Ev, symObjAddr: 0xE8F8, symBinAddr: 0x1000119D0, symSize: 0x28 }
  - { offsetInCU: 0x222CE, offset: 0x222CE, size: 0x8, addend: 0x0, symName: __ZNSt3__114__split_bufferINS_12basic_stringIcNS_11char_traitsIcEENS_9allocatorIcEEEERNS4_IS6_EEE9__end_capB7v160006Ev, symObjAddr: 0xE920, symBinAddr: 0x1000119F8, symSize: 0x28 }
  - { offsetInCU: 0x222F4, offset: 0x222F4, size: 0x8, addend: 0x0, symName: __ZNSt3__117__compressed_pairIPNS_12basic_stringIcNS_11char_traitsIcEENS_9allocatorIcEEEERNS4_IS6_EEEC2B7v160006IDnS9_EEOT_OT0_, symObjAddr: 0xE948, symBinAddr: 0x100011A20, symSize: 0x48 }
  - { offsetInCU: 0x2234C, offset: 0x2234C, size: 0x8, addend: 0x0, symName: __ZNSt3__122__compressed_pair_elemIRNS_9allocatorINS_12basic_stringIcNS_11char_traitsIcEENS1_IcEEEEEELi1ELb0EEC2B7v160006IS8_vEEOT_, symObjAddr: 0xE990, symBinAddr: 0x100011A68, symSize: 0x20 }
  - { offsetInCU: 0x2238E, offset: 0x2238E, size: 0x8, addend: 0x0, symName: __ZNSt3__19allocatorINS_12basic_stringIcNS_11char_traitsIcEENS0_IcEEEEE8allocateB7v160006Em, symObjAddr: 0xE9B0, symBinAddr: 0x100011A88, symSize: 0x5C }
  - { offsetInCU: 0x223C2, offset: 0x223C2, size: 0x8, addend: 0x0, symName: __ZNSt3__117__compressed_pairIPNS_12basic_stringIcNS_11char_traitsIcEENS_9allocatorIcEEEERNS4_IS6_EEE6secondB7v160006Ev, symObjAddr: 0xEA0C, symBinAddr: 0x100011AE4, symSize: 0x28 }
  - { offsetInCU: 0x223E8, offset: 0x223E8, size: 0x8, addend: 0x0, symName: __ZNSt3__122__compressed_pair_elemIRNS_9allocatorINS_12basic_stringIcNS_11char_traitsIcEENS1_IcEEEEEELi1ELb0EE5__getB7v160006Ev, symObjAddr: 0xEA34, symBinAddr: 0x100011B0C, symSize: 0x18 }
  - { offsetInCU: 0x2240E, offset: 0x2240E, size: 0x8, addend: 0x0, symName: __ZNSt3__117__compressed_pairIPNS_12basic_stringIcNS_11char_traitsIcEENS_9allocatorIcEEEERNS4_IS6_EEE5firstB7v160006Ev, symObjAddr: 0xEA4C, symBinAddr: 0x100011B24, symSize: 0x24 }
  - { offsetInCU: 0x22434, offset: 0x22434, size: 0x8, addend: 0x0, symName: __ZNSt3__116reverse_iteratorIPNS_12basic_stringIcNS_11char_traitsIcEENS_9allocatorIcEEEEEC1B7v160006ES7_, symObjAddr: 0xEB9C, symBinAddr: 0x100011C74, symSize: 0x34 }
  - { offsetInCU: 0x2246C, offset: 0x2246C, size: 0x8, addend: 0x0, symName: __ZNKSt3__116reverse_iteratorIPNS_12basic_stringIcNS_11char_traitsIcEENS_9allocatorIcEEEEE4baseB7v160006Ev, symObjAddr: 0xEBD0, symBinAddr: 0x100011CA8, symSize: 0x18 }
  - { offsetInCU: 0x22492, offset: 0x22492, size: 0x8, addend: 0x0, symName: __ZNKSt3__16vectorINS_12basic_stringIcNS_11char_traitsIcEENS_9allocatorIcEEEENS4_IS6_EEE14__annotate_newB7v160006Em, symObjAddr: 0xEC24, symBinAddr: 0x100011CFC, symSize: 0xC8 }
  - { offsetInCU: 0x224C7, offset: 0x224C7, size: 0x8, addend: 0x0, symName: __ZNSt3__129_AllocatorDestroyRangeReverseINS_9allocatorINS_12basic_stringIcNS_11char_traitsIcEENS1_IcEEEEEENS_16reverse_iteratorIPS6_EEEC1B7v160006ERS7_RSA_SD_, symObjAddr: 0xED48, symBinAddr: 0x100011E20, symSize: 0x44 }
  - { offsetInCU: 0x22524, offset: 0x22524, size: 0x8, addend: 0x0, symName: __ZNSt3__116allocator_traitsINS_9allocatorINS_12basic_stringIcNS_11char_traitsIcEENS1_IcEEEEEEE9constructB7v160006IS6_JS6_EvEEvRS7_PT_DpOT0_, symObjAddr: 0xEDD4, symBinAddr: 0x100011EAC, symSize: 0x34 }
  - { offsetInCU: 0x2257B, offset: 0x2257B, size: 0x8, addend: 0x0, symName: __ZNKSt3__116reverse_iteratorIPNS_12basic_stringIcNS_11char_traitsIcEENS_9allocatorIcEEEEEdeB7v160006Ev, symObjAddr: 0xEE2C, symBinAddr: 0x100011F04, symSize: 0x28 }
  - { offsetInCU: 0x225AF, offset: 0x225AF, size: 0x8, addend: 0x0, symName: __ZNSt3__116reverse_iteratorIPNS_12basic_stringIcNS_11char_traitsIcEENS_9allocatorIcEEEEEppB7v160006Ev, symObjAddr: 0xEE54, symBinAddr: 0x100011F2C, symSize: 0x20 }
  - { offsetInCU: 0x225D5, offset: 0x225D5, size: 0x8, addend: 0x0, symName: __ZNSt3__128__exception_guard_exceptionsINS_29_AllocatorDestroyRangeReverseINS_9allocatorINS_12basic_stringIcNS_11char_traitsIcEENS2_IcEEEEEENS_16reverse_iteratorIPS7_EEEEE10__completeB7v160006Ev, symObjAddr: 0xEE74, symBinAddr: 0x100011F4C, symSize: 0x1C }
  - { offsetInCU: 0x225FB, offset: 0x225FB, size: 0x8, addend: 0x0, symName: __ZNSt3__128__exception_guard_exceptionsINS_29_AllocatorDestroyRangeReverseINS_9allocatorINS_12basic_stringIcNS_11char_traitsIcEENS2_IcEEEEEENS_16reverse_iteratorIPS7_EEEEED1B7v160006Ev, symObjAddr: 0xEE90, symBinAddr: 0x100011F68, symSize: 0x2C }
  - { offsetInCU: 0x22625, offset: 0x22625, size: 0x8, addend: 0x0, symName: __ZNSt3__128__exception_guard_exceptionsINS_29_AllocatorDestroyRangeReverseINS_9allocatorINS_12basic_stringIcNS_11char_traitsIcEENS2_IcEEEEEENS_16reverse_iteratorIPS7_EEEEEC1B7v160006ESC_, symObjAddr: 0xEEBC, symBinAddr: 0x100011F94, symSize: 0x34 }
  - { offsetInCU: 0x2265E, offset: 0x2265E, size: 0x8, addend: 0x0, symName: __ZNSt3__128__exception_guard_exceptionsINS_29_AllocatorDestroyRangeReverseINS_9allocatorINS_12basic_stringIcNS_11char_traitsIcEENS2_IcEEEEEENS_16reverse_iteratorIPS7_EEEEEC2B7v160006ESC_, symObjAddr: 0xEEF0, symBinAddr: 0x100011FC8, symSize: 0x30 }
  - { offsetInCU: 0x22697, offset: 0x22697, size: 0x8, addend: 0x0, symName: __ZNSt3__129_AllocatorDestroyRangeReverseINS_9allocatorINS_12basic_stringIcNS_11char_traitsIcEENS1_IcEEEEEENS_16reverse_iteratorIPS6_EEEC2B7v160006ERS7_RSA_SD_, symObjAddr: 0xEF20, symBinAddr: 0x100011FF8, symSize: 0x38 }
  - { offsetInCU: 0x226EE, offset: 0x226EE, size: 0x8, addend: 0x0, symName: __ZNSt3__19allocatorINS_12basic_stringIcNS_11char_traitsIcEENS0_IcEEEEE9constructB7v160006IS5_JS5_EEEvPT_DpOT0_, symObjAddr: 0xEF58, symBinAddr: 0x100012030, symSize: 0x30 }
  - { offsetInCU: 0x2274A, offset: 0x2274A, size: 0x8, addend: 0x0, symName: __ZNSt3__119__to_address_helperINS_16reverse_iteratorIPNS_12basic_stringIcNS_11char_traitsIcEENS_9allocatorIcEEEEEEvE6__callB7v160006ERKS9_, symObjAddr: 0xEF88, symBinAddr: 0x100012060, symSize: 0x38 }
  - { offsetInCU: 0x2276D, offset: 0x2276D, size: 0x8, addend: 0x0, symName: __ZNKSt3__116reverse_iteratorIPNS_12basic_stringIcNS_11char_traitsIcEENS_9allocatorIcEEEEEptB7v160006Ev, symObjAddr: 0xEFC0, symBinAddr: 0x100012098, symSize: 0x24 }
  - { offsetInCU: 0x22793, offset: 0x22793, size: 0x8, addend: 0x0, symName: __ZNSt3__128__exception_guard_exceptionsINS_29_AllocatorDestroyRangeReverseINS_9allocatorINS_12basic_stringIcNS_11char_traitsIcEENS2_IcEEEEEENS_16reverse_iteratorIPS7_EEEEED2B7v160006Ev, symObjAddr: 0xEFE4, symBinAddr: 0x1000120BC, symSize: 0x50 }
  - { offsetInCU: 0x227BD, offset: 0x227BD, size: 0x8, addend: 0x0, symName: __ZNKSt3__129_AllocatorDestroyRangeReverseINS_9allocatorINS_12basic_stringIcNS_11char_traitsIcEENS1_IcEEEEEENS_16reverse_iteratorIPS6_EEEclB7v160006Ev, symObjAddr: 0xF034, symBinAddr: 0x10001210C, symSize: 0xB4 }
  - { offsetInCU: 0x227E4, offset: 0x227E4, size: 0x8, addend: 0x0, symName: __ZNSt3__116reverse_iteratorINS0_IPNS_12basic_stringIcNS_11char_traitsIcEENS_9allocatorIcEEEEEEEC1B7v160006ES8_, symObjAddr: 0xF158, symBinAddr: 0x100012230, symSize: 0x3C }
  - { offsetInCU: 0x2281C, offset: 0x2281C, size: 0x8, addend: 0x0, symName: __ZNSt3__116reverse_iteratorINS0_IPNS_12basic_stringIcNS_11char_traitsIcEENS_9allocatorIcEEEEEEEppB7v160006Ev, symObjAddr: 0xF218, symBinAddr: 0x1000122F0, symSize: 0x30 }
  - { offsetInCU: 0x22842, offset: 0x22842, size: 0x8, addend: 0x0, symName: __ZNKSt3__116reverse_iteratorINS0_IPNS_12basic_stringIcNS_11char_traitsIcEENS_9allocatorIcEEEEEEE4baseB7v160006Ev, symObjAddr: 0xF248, symBinAddr: 0x100012320, symSize: 0x24 }
  - { offsetInCU: 0x2286E, offset: 0x2286E, size: 0x8, addend: 0x0, symName: __ZNSt3__119__to_address_helperINS_16reverse_iteratorINS1_IPNS_12basic_stringIcNS_11char_traitsIcEENS_9allocatorIcEEEEEEEEvE6__callB7v160006ERKSA_, symObjAddr: 0xF26C, symBinAddr: 0x100012344, symSize: 0x38 }
  - { offsetInCU: 0x22891, offset: 0x22891, size: 0x8, addend: 0x0, symName: __ZNKSt3__116reverse_iteratorINS0_IPNS_12basic_stringIcNS_11char_traitsIcEENS_9allocatorIcEEEEEEEptB7v160006Ev, symObjAddr: 0xF2A4, symBinAddr: 0x10001237C, symSize: 0x24 }
  - { offsetInCU: 0x228B7, offset: 0x228B7, size: 0x8, addend: 0x0, symName: __ZNKSt3__116reverse_iteratorINS0_IPNS_12basic_stringIcNS_11char_traitsIcEENS_9allocatorIcEEEEEEEdeB7v160006Ev, symObjAddr: 0xF2C8, symBinAddr: 0x1000123A0, symSize: 0x34 }
  - { offsetInCU: 0x228EB, offset: 0x228EB, size: 0x8, addend: 0x0, symName: __ZNSt3__116reverse_iteratorIPNS_12basic_stringIcNS_11char_traitsIcEENS_9allocatorIcEEEEEmmB7v160006Ev, symObjAddr: 0xF2FC, symBinAddr: 0x1000123D4, symSize: 0x20 }
  - { offsetInCU: 0x22911, offset: 0x22911, size: 0x8, addend: 0x0, symName: __ZNSt3__116reverse_iteratorINS0_IPNS_12basic_stringIcNS_11char_traitsIcEENS_9allocatorIcEEEEEEEC2B7v160006ES8_, symObjAddr: 0xF31C, symBinAddr: 0x1000123F4, symSize: 0x2C }
  - { offsetInCU: 0x22949, offset: 0x22949, size: 0x8, addend: 0x0, symName: __ZNSt3__116reverse_iteratorIPNS_12basic_stringIcNS_11char_traitsIcEENS_9allocatorIcEEEEEC2B7v160006ES7_, symObjAddr: 0xF348, symBinAddr: 0x100012420, symSize: 0x28 }
  - { offsetInCU: 0x22981, offset: 0x22981, size: 0x8, addend: 0x0, symName: __ZNSt3__114__split_bufferINS_12basic_stringIcNS_11char_traitsIcEENS_9allocatorIcEEEERNS4_IS6_EEED2Ev, symObjAddr: 0xF370, symBinAddr: 0x100012448, symSize: 0x8C }
  - { offsetInCU: 0x229AD, offset: 0x229AD, size: 0x8, addend: 0x0, symName: __ZNSt3__114__split_bufferINS_12basic_stringIcNS_11char_traitsIcEENS_9allocatorIcEEEERNS4_IS6_EEE5clearB7v160006Ev, symObjAddr: 0xF3FC, symBinAddr: 0x1000124D4, symSize: 0x28 }
  - { offsetInCU: 0x229D3, offset: 0x229D3, size: 0x8, addend: 0x0, symName: __ZNKSt3__114__split_bufferINS_12basic_stringIcNS_11char_traitsIcEENS_9allocatorIcEEEERNS4_IS6_EEE8capacityB7v160006Ev, symObjAddr: 0xF424, symBinAddr: 0x1000124FC, symSize: 0x40 }
  - { offsetInCU: 0x229F9, offset: 0x229F9, size: 0x8, addend: 0x0, symName: __ZNSt3__114__split_bufferINS_12basic_stringIcNS_11char_traitsIcEENS_9allocatorIcEEEERNS4_IS6_EEE17__destruct_at_endB7v160006EPS6_, symObjAddr: 0xF464, symBinAddr: 0x10001253C, symSize: 0x2C }
  - { offsetInCU: 0x22A2D, offset: 0x22A2D, size: 0x8, addend: 0x0, symName: __ZNSt3__114__split_bufferINS_12basic_stringIcNS_11char_traitsIcEENS_9allocatorIcEEEERNS4_IS6_EEE17__destruct_at_endB7v160006EPS6_NS_17integral_constantIbLb0EEE, symObjAddr: 0xF490, symBinAddr: 0x100012568, symSize: 0x80 }
  - { offsetInCU: 0x22A6D, offset: 0x22A6D, size: 0x8, addend: 0x0, symName: __ZNKSt3__114__split_bufferINS_12basic_stringIcNS_11char_traitsIcEENS_9allocatorIcEEEERNS4_IS6_EEE9__end_capB7v160006Ev, symObjAddr: 0xF510, symBinAddr: 0x1000125E8, symSize: 0x28 }
  - { offsetInCU: 0x22A93, offset: 0x22A93, size: 0x8, addend: 0x0, symName: __ZNKSt3__117__compressed_pairIPNS_12basic_stringIcNS_11char_traitsIcEENS_9allocatorIcEEEERNS4_IS6_EEE5firstB7v160006Ev, symObjAddr: 0xF538, symBinAddr: 0x100012610, symSize: 0x24 }
...
